(lp0
(S'in'
p1
S'the'
p2
tp3
a(S'of'
p4
S'the'
p5
tp6
a(S','
p7
S'and'
p8
tp9
a(g7
S'the'
p10
tp11
a(S'on'
p12
S'the'
p13
tp14
a(S'.'
p15
S'"'
p16
tp17
a(g7
g16
tp18
a(g7
S'which'
p19
tp20
a(S'to'
p21
S'the'
p22
tp23
a(S'and'
p24
S'the'
p25
tp26
a(S'with'
p27
S'the'
p28
tp29
a(g7
S'but'
p30
tp31
a(S'for'
p32
S'the'
p33
tp34
a(S'at'
p35
S'the'
p36
tp37
a(g7
S'in'
p38
tp39
a(S'that'
p40
S'the'
p41
tp42
a(S'more'
p43
S'than'
p44
tp45
a(S'will'
p46
S'be'
p47
tp48
a(S'from'
p49
S'the'
p50
tp51
a(S'the'
p52
S'czech'
p53
tp54
a(g7
S'as'
p55
tp56
a(g7
S'that'
p57
tp58
a(g7
S'to'
p59
tp60
a(g7
S'it'
p61
tp62
a(S'it'
p63
S'is'
p64
tp65
a(S'that'
p66
S'he'
p67
tp68
a(S'one'
p69
S'of'
p70
tp71
a(g7
S'he'
p72
tp73
a(g16
S'said'
p74
tp75
a(S'the'
p76
S'bank'
p77
tp78
a(S'is'
p79
S'not'
p80
tp81
a(S'number'
p82
S'of'
p83
tp84
a(g7
S'i'
p85
tp86
a(g7
S'with'
p87
tp88
a(S'the'
p89
S'second'
p90
tp91
a(g16
g85
tp92
a(S'do'
p93
S"n't"
p94
tp95
a(S'is'
p96
S'the'
p97
tp98
a(g16
g15
tp99
a(S'the'
p100
S'world'
p101
tp102
a(S'bank'
p103
g7
tp104
a(S'after'
p105
S'the'
p106
tp107
a(S'this'
p108
S'is'
p109
tp110
a(g7
S'where'
p111
tp112
a(S'as'
p113
S'the'
p114
tp115
a(S'the'
p116
S'game'
p117
tp118
a(S'it'
p119
S'was'
p120
tp121
a(S'for'
p122
S'example'
p123
tp124
a(g123
g7
tp125
a(S'the'
p126
S'first'
p127
tp128
a(g7
S'you'
p129
tp130
a(S'in'
p131
S'a'
p132
tp133
a(g53
S'republic'
p134
tp135
a(g7
S'on'
p136
tp137
a(g16
S'he'
p138
tp139
a(S'is'
p140
g132
tp141
a(S'said'
p142
S'that'
p143
tp144
a(S'about'
p145
S'the'
p146
tp147
a(S'the'
p148
S'other'
p149
tp150
a(S'the'
p151
S'main'
p152
tp153
a(g7
S'who'
p154
tp155
a(S'head'
p156
S'of'
p157
tp158
a(S'according'
p159
S'to'
p160
tp161
a(g7
S'because'
p162
tp163
a(S'deutsche'
p164
S'bank'
p165
tp166
a(g16
S'if'
p167
tp168
a(g7
S'for'
p169
tp170
a(g7
S'we'
p171
tp172
a(S'to'
p173
S'be'
p174
tp175
a(S'the'
p176
S'building'
p177
tp178
a(g132
S'few'
p179
tp180
a(S';'
p181
S'and'
p182
tp183
a(S'the'
p184
S'company'
p185
tp186
a(S'want'
p187
S'to'
p188
tp189
a(S'the'
p190
S'fact'
p191
tp192
a(S'during'
p193
S'the'
p194
tp195
a(g16
g7
tp196
a(S'of'
p197
g132
tp198
a(S'board'
p199
S'of'
p200
tp201
a(S')'
p202
g15
tp203
a(S'in'
p204
S'germany'
p205
tp206
a(g16
S'says'
p207
tp208
a(S'the'
p209
S'time'
p210
tp211
a(S'need'
p212
S'to'
p213
tp214
a(S'based'
p215
S'on'
p216
tp217
a(S'in'
p218
S'september'
p219
tp220
a(g16
S'the'
p221
tp222
a(S'the'
p223
S'situation'
p224
tp225
a(S'that'
p226
S'they'
p227
tp228
a(S'and'
p229
g85
tp230
a(g191
S'that'
p231
tp232
a(S'was'
p233
S'the'
p234
tp235
a(S'and'
p236
g132
tp237
a(S'the'
p238
S'most'
p239
tp240
a(S'that'
p241
S'if'
p242
tp243
a(g132
S'large'
p244
tp245
a(S'the'
p246
S'third'
p247
tp248
a(S'how'
p249
S'to'
p250
tp251
a(g7
S'is'
p252
tp253
a(g7
S'this'
p254
tp255
a(S'part'
p256
S'of'
p257
tp258
a(S'as'
p259
g132
tp260
a(S'that'
p261
g7
tp262
a(S'said'
p263
g7
tp264
a(S'per'
p265
S'cent'
p266
tp267
a(S'before'
p268
S'the'
p269
tp270
a(g202
g7
tp271
a(S'of'
p272
S'his'
p273
tp274
a(g16
S'and'
p275
tp276
a(S'the'
p277
S'previous'
p278
tp279
a(S'does'
p280
S'not'
p281
tp282
a(S'he'
p283
S'was'
p284
tp285
a(S'he'
p286
S'is'
p287
tp288
a(S'as'
p289
S'well'
p290
tp291
a(S'of'
p292
S'directors'
p293
tp294
a(S'chairman'
p295
S'of'
p296
tp297
a(g7
S'so'
p298
tp299
a(S'the'
p300
g199
tp301
a(S'to'
p302
S'do'
p303
tp304
a(S'swimming'
p305
S'pools'
p306
tp307
a(g290
S'as'
p308
tp309
a(S'the'
p310
S'german'
p311
tp312
a(S'if'
p313
S'you'
p314
tp315
a(g7
S'not'
p316
tp317
a(g7
S'will'
p318
tp319
a(S'the'
p320
S'market'
p321
tp322
a(S'however'
p323
g7
tp324
a(S'to'
p325
g132
tp326
a(S'so'
p327
g241
tp328
a(S'that'
p329
S'in'
p330
tp331
a(S'banks'
p332
g7
tp333
a(S'was'
p334
g132
tp335
a(S'with'
p336
g132
tp337
a(S'the'
p338
S'same'
p339
tp340
a(S'deutsche'
p341
S'bahn'
p342
tp343
a(S'years'
p344
g7
tp345
a(S'candidate'
p346
g7
tp347
a(S'swiss'
p348
S'banks'
p349
tp350
a(g7
g132
tp351
a(S'the'
p352
g82
tp353
a(S'the'
p354
S'future'
p355
tp356
a(S'he'
p357
S'will'
p358
tp359
a(S'other'
p360
S'hand'
p361
tp362
a(g7
S'or'
p363
tp364
a(g361
g7
tp365
a(g85
S'do'
p366
tp367
a(S'time'
p368
g7
tp369
a(S'for'
p370
g132
tp371
a(S'all'
p372
g338
tp373
a(S'of'
p374
S'children'
p375
tp376
a(S'czech'
p377
S'football'
p378
tp379
a(S'you'
p380
S"'re"
p381
tp382
a(g16
S'it'
p383
tp384
a(S'you'
p385
S'have'
p386
tp387
a(g165
g15
tp388
a(S'the'
p389
S'past'
p390
tp391
a(S'some'
p392
S'of'
p393
tp394
a(S'not'
p395
S'so'
p396
tp397
a(S'anniversary'
p398
S'of'
p399
tp400
a(S'the'
p401
S'end'
p402
tp403
a(S'that'
p404
S'you'
p405
tp406
a(S'to'
p407
S'avoid'
p408
tp409
a(g405
S'can'
p410
tp411
a(S'in'
p412
S'switzerland'
p413
tp414
a(g202
g181
tp415
a(S'it'
p416
S"'s"
p417
tp418
a(S'and'
p419
S'now'
p420
tp421
a(S'he'
p422
S'also'
p423
tp424
a(g7
S'when'
p425
tp426
a(S'the'
p427
S'match'
p428
tp429
a(S'swimming'
p430
S'pool'
p431
tp432
a(S'the'
p433
S'west'
p434
tp435
a(S'the'
p436
S'general'
p437
tp438
a(S'such'
p439
S'as'
p440
tp441
a(S'in'
p442
S'vienna'
p443
tp444
a(S'work'
p445
g15
tp446
a(S'than'
p447
S'the'
p448
tp449
a(S'few'
p450
S'years'
p451
tp452
a(S'the'
p453
S'largest'
p454
tp455
a(S'we'
p456
S'have'
p457
tp458
a(g16
S'for'
p459
tp460
a(g7
g159
tp461
a(S'that'
p462
g85
tp463
a(S'in'
p464
S'football'
p465
tp466
a(S'which'
p467
S'was'
p468
tp469
a(S'be'
p470
g132
tp471
a(S'in'
p472
S'his'
p473
tp474
a(S'the'
p475
S'last'
p476
tp477
a(S'do'
p478
S'not'
p479
tp480
a(S'but'
p481
S'it'
p482
tp483
a(S'which'
p484
S'is'
p485
tp486
a(S'people'
p487
g7
tp488
a(S'ibm'
p489
g7
tp490
a(S'on'
p491
S'tuesday'
p492
tp493
a(S'that'
p494
S'it'
p495
tp496
a(S'buffett'
p497
S'said'
p498
tp499
a(S'there'
p500
S'is'
p501
tp502
a(S'by'
p503
S'the'
p504
tp505
a(S'amount'
p506
S'of'
p507
tp508
a(S'the'
p509
S'new'
p510
tp511
a(S'have'
p512
S'to'
p513
tp514
a(S'continue'
p515
S'to'
p516
tp517
a(S'in'
p518
S'addition'
p519
tp520
a(S'large'
p521
S'number'
p522
tp523
a(S'example'
p524
S'of'
p525
tp526
a(g7
S'ibm'
p527
tp528
a(g7
S'was'
p529
tp530
a(S'and'
p531
S'yet'
p532
tp533
a(g132
S'good'
p534
tp535
a(S'you'
p536
S'are'
p537
tp538
a(g7
S'ubs'
p539
tp540
a(S':'
p541
g16
tp542
a(S'in'
p543
S'this'
p544
tp545
a(S'course'
p546
g7
tp547
a(S'but'
p548
S'the'
p549
tp550
a(S'no'
p551
S'longer'
p552
tp553
a(S'at'
p554
S'least'
p555
tp556
a(S'germany'
p557
g15
tp558
a(g205
g7
tp559
a(S'second'
p560
S'half'
p561
tp562
a(S'ago'
p563
g15
tp564
a(S'from'
p565
S'obesity'
p566
tp567
a(S'national'
p568
S'team'
p569
tp570
a(S'elected'
p571
g7
tp572
a(S'not'
p573
g132
tp574
a(S'uefa'
p575
S'and'
p576
tp577
a(g7
S'both'
p578
tp579
a(S'event'
p580
g15
tp581
a(g576
S'fifa'
p582
tp583
a(S'he'
p584
S'has'
p585
tp586
a(S'and'
p587
S'to'
p588
tp589
a(S'countries'
p590
g15
tp591
a(S'of'
p592
S'course'
p593
tp594
a(S'history'
p595
S'of'
p596
tp597
a(S'like'
p598
S'to'
p599
tp600
a(S'swiss'
p601
S'francs'
p602
tp603
a(S'with'
p604
S'whom'
p605
tp606
a(S'place'
p607
S'in'
p608
tp609
a(S'where'
p610
S'the'
p611
tp612
a(S'would'
p613
S'be'
p614
tp615
a(S'of'
p616
S'one'
p617
tp618
a(S'united'
p619
S'states'
p620
tp621
a(S'on'
p622
S'how'
p623
tp624
a(S'same'
p625
S'time'
p626
tp627
a(S'-'
p628
S'and'
p629
tp630
a(S'billion'
p631
g601
tp632
a(S'the'
p633
S'best'
p634
tp635
a(g566
g15
tp636
a(S'were'
p637
S'not'
p638
tp639
a(g16
S'we'
p640
tp641
a(S'he'
p642
S'said'
p643
tp644
a(S'program'
p645
g15
tp646
a(S'prague'
p647
g7
tp648
a(S'services'
p649
g7
tp650
a(S'miroslav'
p651
S'\xd0\xbf\xd0\xb5\xd0\xbb\xd1\x8c\xd1\x82\xd0\xb0'
p652
tp653
a(S'will'
p654
S'not'
p655
tp656
a(S'the'
p657
g595
tp658
a(S'financial'
p659
S'crisis'
p660
tp661
a(S'pool'
p662
S'in'
p663
tp664
a(S'the'
p665
S'national'
p666
tp667
a(g181
S'he'
p668
tp669
a(S'will'
p670
S'take'
p671
tp672
a(S'football'
p673
g15
tp674
a(S'more'
p675
S'money'
p676
tp677
a(S'the'
p678
S'problem'
p679
tp680
a(S'series'
p681
S'of'
p682
tp683
a(S'the'
p684
S'museum'
p685
tp686
a(S'of'
p687
S'ubs'
p688
tp689
a(S'said'
p690
g15
tp691
a(S'the'
p692
S'two'
p693
tp694
a(S'obesity'
p695
S'is'
p696
tp697
a(S'and'
p698
S'in'
p699
tp700
a(g181
S'the'
p701
tp702
a(S'was'
p703
S'not'
p704
tp705
a(S'in'
p706
S'europe'
p707
tp708
a(S'country'
p709
g7
tp710
a(S'the'
p711
S'more'
p712
tp713
a(S'if'
p714
S'he'
p715
tp716
a(S'believes'
p717
S'that'
p718
tp719
a(S'if'
p720
S'the'
p721
tp722
a(S'is'
p723
S'clear'
p724
tp725
a(S'world'
p726
S"'s"
p727
tp728
a(S'it'
p729
g670
tp730
a(S'and'
p731
S'not'
p732
tp733
a(g7
S'such'
p734
tp735
a(S'year'
p736
g15
tp737
a(S'to'
p738
S'pay'
p739
tp740
a(S'in'
p741
S'2007'
p742
tp743
a(g7
S'if'
p744
tp745
a(S'the'
p746
S'the'
p747
tp748
a(S'director'
p749
S'of'
p750
tp751
a(S'the'
p752
S'case'
p753
tp754
a(S'to'
p755
g7
tp756
a(S'would'
p757
S'have'
p758
tp759
a(S'billion'
p760
g15
tp761
a(S'meeting'
p762
g7
tp763
a(S'and'
p764
g720
tp765
a(S'between'
p766
S'the'
p767
tp768
a(S'czech'
p769
S'tourists'
p770
tp771
a(S'became'
p772
g132
tp773
a(S'around'
p774
S'the'
p775
tp776
a(S'the'
p777
S'financial'
p778
tp779
a(g7
S'were'
p780
tp781
a(S'to'
p782
S'their'
p783
tp784
a(S'up'
p785
S'to'
p786
tp787
a(S'the'
p788
S'ibm'
p789
tp790
a(S'no'
p791
S'one'
p792
tp793
a(S'the'
p794
S'beginning'
p795
tp796
a(g7
S'what'
p797
tp798
a(S'time'
p799
g738
tp800
a(S'bank'
p801
S'of'
p802
tp803
a(g138
S"'s"
p804
tp805
a(S'along'
p806
S'with'
p807
tp808
a(S'young'
p809
S'people'
p810
tp811
a(g132
S'new'
p812
tp813
a(g7
S'how'
p814
tp815
a(S'have'
p816
g132
tp817
a(S'which'
p818
S'has'
p819
tp820
a(g7
S'from'
p821
tp822
a(S'see'
p823
S'the'
p824
tp825
a(S'can'
p826
S'be'
p827
tp828
a(S'would'
p829
S'like'
p830
tp831
a(g7
S'miroslav'
p832
tp833
a(S'of'
p834
S'its'
p835
tp836
a(S'not'
p837
S'only'
p838
tp839
a(g7
S'czech'
p840
tp841
a(S'has'
p842
g132
tp843
a(S'the'
p844
S'name'
p845
tp846
a(S'their'
p847
S'own'
p848
tp849
a(S'her'
p850
S'husband'
p851
tp852
a(S'able'
p853
S'to'
p854
tp855
a(g132
S'candidate'
p856
tp857
a(S"'s"
p858
S'nuclear'
p859
tp860
a(S'end'
p861
S'of'
p862
tp863
a(S'did'
p864
S'not'
p865
tp866
a(S'the'
p867
S'united'
p868
tp869
a(g85
g829
tp870
a(S'he'
p871
S'would'
p872
tp873
a(S'%'
p874
S'of'
p875
tp876
a(S'anti'
p877
g628
tp878
a(S"n't"
p879
S'want'
p880
tp881
a(g83
S'them'
p882
tp883
a(S'is'
p884
S'especially'
p885
tp886
a(S'the'
p887
S'highest'
p888
tp889
a(S'of'
p890
S'ibm'
p891
tp892
a(g219
g7
tp893
a(S'with'
p894
S'his'
p895
tp896
a(S'they'
p897
S'have'
p898
tp899
a(S'the'
p900
S'swiss'
p901
tp902
a(S'shares'
p903
S'of'
p904
tp905
a(S'not'
p906
S'just'
p907
tp908
a(S'say'
p909
S'that'
p910
tp911
a(g85
S"'m"
p912
tp913
a(g181
S'it'
p914
tp915
a(S'many'
p916
S'people'
p917
tp918
a(S'general'
p919
S'assembly'
p920
tp921
a(S'football'
p922
g7
tp923
a(g85
S'have'
p924
tp925
a(S'thus'
p926
g7
tp927
a(S'which'
p928
g456
tp929
a(S'on'
p930
g132
tp931
a(g7
S'at'
p932
tp933
a(S'the'
p934
g16
tp935
a(S'association'
p936
S'in'
p937
tp938
a(S'the'
p939
S'european'
p940
tp941
a(g132
S'great'
p942
tp943
a(S'have'
p944
S'been'
p945
tp946
a(g132
S'coincidence'
p947
tp948
a(S'it'
p949
g15
tp950
a(g7
S'of'
p951
tp952
a(S'companies'
p953
g7
tp954
a(S'work'
p955
g7
tp956
a(S'billion'
p957
g7
tp958
a(S'the'
p959
S'presidential'
p960
tp961
a(S'the'
p962
S'football'
p963
tp964
a(S'directors'
p965
S'of'
p966
tp967
a(g132
S'result'
p968
tp969
a(S'the'
p970
S'investment'
p971
tp972
a(g859
g645
tp973
a(S'life'
p974
g15
tp975
a(S'that'
p976
S'make'
p977
tp978
a(S'suffer'
p979
g565
tp980
a(S'committee'
p981
g7
tp982
a(S'despite'
p983
g190
tp984
a(S'switzerland'
p985
g7
tp986
a(S'at'
p987
g132
tp988
a(S'result'
p989
S'of'
p990
tp991
a(S'means'
p992
S'that'
p993
tp994
a(S'rates'
p995
S'on'
p996
tp997
a(S'price'
p998
S'of'
p999
tp1000
a(S'may'
p1001
S'be'
p1002
tp1003
a(S'past'
p1004
g7
tp1005
a(S'them'
p1006
g7
tp1007
a(g7
S'his'
p1008
tp1009
a(g561
S'of'
p1010
tp1011
a(S'when'
p1012
S'you'
p1013
tp1014
a(S'year'
p1015
g7
tp1016
a(S'the'
p1017
S'executive'
p1018
tp1019
a(S'quarter'
p1020
g15
tp1021
a(g132
S'small'
p1022
tp1023
a(S'is'
p1024
S'unlikely'
p1025
tp1026
a(g7
S'thomas'
p1027
tp1028
a(g177
S'was'
p1029
tp1030
a(S'president'
p1031
g15
tp1032
a(g117
g15
tp1033
a(S'is'
p1034
S'that'
p1035
tp1036
a(g247
g1020
tp1037
a(S'than'
p1038
S'$'
p1039
tp1040
a(g85
S'am'
p1041
tp1042
a(S'company'
p1043
g7
tp1044
a(S'the'
p1045
S'association'
p1046
tp1047
a(S'we'
p1048
S'could'
p1049
tp1050
a(S'beginning'
p1051
S'of'
p1052
tp1053
a(S'women'
p1054
g7
tp1055
a(g132
S'significant'
p1056
tp1057
a(S'both'
p1058
S'the'
p1059
tp1060
a(S'moreover'
p1061
g7
tp1062
a(S'promised'
p1063
S'that'
p1064
tp1065
a(S'the'
p1066
S'current'
p1067
tp1068
a(g807
S'them'
p1069
tp1070
a(S'president'
p1071
S'of'
p1072
tp1073
a(S'the'
p1074
S'rules'
p1075
tp1076
a(S'this'
p1077
g992
tp1078
a(S'believe'
p1079
S'that'
p1080
tp1081
a(S'the'
p1082
S'one'
p1083
tp1084
a(g132
S'certain'
p1085
tp1086
a(S'percent'
p1087
g15
tp1088
a(S'to'
p1089
S'one'
p1090
tp1091
a(S'us'
p1092
S'to'
p1093
tp1094
a(g810
g15
tp1095
a(S'but'
p1096
S'he'
p1097
tp1098
a(g85
S'want'
p1099
tp1100
a(S'pools'
p1101
S'in'
p1102
tp1103
a(S'that'
p1104
S'we'
p1105
tp1106
a(S'tomas'
p1107
S'\xd0\xbf\xd0\xb0\xd1\x86\xd0\xbb\xd0\xb8\xd0\xba'
p1108
tp1109
a(S'ibm'
p1110
S"'s"
p1111
tp1112
a(S'now'
p1113
g7
tp1114
a(S'bank'
p1115
S"'s"
p1116
tp1117
a(S'of'
p1118
S'deutsche'
p1119
tp1120
a(S'director'
p1121
g7
tp1122
a(S'the'
p1123
S'black'
p1124
tp1125
a(S'rather'
p1126
g447
tp1127
a(S'area'
p1128
g15
tp1129
a(g668
S'added'
p1130
tp1131
a(S'into'
p1132
S'the'
p1133
tp1134
a(S'had'
p1135
S'to'
p1136
tp1137
a(S'swiss'
p1138
S'bank'
p1139
tp1140
a(S'many'
p1141
S'of'
p1142
tp1143
a(S'in'
p1144
S'central'
p1145
tp1146
a(S'the'
p1147
S'eu'
p1148
tp1149
a(S'50th'
p1150
S'anniversary'
p1151
tp1152
a(S'two'
p1153
S'months'
p1154
tp1155
a(S'black'
p1156
S'sea'
p1157
tp1158
a(S'israel'
p1159
g15
tp1160
a(S'1958'
p1161
S'world'
p1162
tp1163
a(S'thomas'
p1164
S'j.'
p1165
tp1166
a(S'candidate'
p1167
g15
tp1168
a(g1165
S'watson'
p1169
tp1170
a(S'and'
p1171
S'eastern'
p1172
tp1173
a(g15
S'according'
p1174
tp1175
a(g1172
S'europe'
p1176
tp1177
a(S'only'
p1178
S'in'
p1179
tp1180
a(g1154
S'ago'
p1181
tp1182
a(S'and'
p1183
S'that'
p1184
tp1185
a(S'in'
p1186
S'brussels'
p1187
tp1188
a(g1145
g1171
tp1189
a(S'national'
p1190
S'bank'
p1191
tp1192
a(S'german'
p1193
g628
tp1194
a(S'former'
p1195
S'czechoslovakia'
p1196
tp1197
a(S'velvet'
p1198
S'revolution'
p1199
tp1200
a(g181
S'but'
p1201
tp1202
a(S'known'
p1203
S'as'
p1204
tp1205
a(S'\xd0\xb9\xd0\xb8\xd0\xbd\xd0\xb4\xd1\x80\xd0\xb6\xd0\xb8\xd1\x85\xd0\xbe\xd0\xbc'
p1206
S'\xd1\x80\xd0\xb0\xd0\xb9\xd1\x85\xd0\xbb\xd0\xbe\xd0\xbc'
p1207
tp1208
a(S'charter'
p1209
g7
tp1210
a(S'image'
p1211
g15
tp1212
a(S'opposite'
p1213
S'direction'
p1214
tp1215
a(S'the'
p1216
g1161
tp1217
a(S'years'
p1218
S'ago'
p1219
tp1220
a(S'turkish'
p1221
S'media'
p1222
tp1223
a(S'crisis'
p1224
g15
tp1225
a(S'bahn'
p1226
g7
tp1227
a(S'the'
p1228
g1150
tp1229
a(S'food'
p1230
S'prices'
p1231
tp1232
a(S'and'
p1233
S'why'
p1234
tp1235
a(S'for'
p1236
S'many'
p1237
tp1238
a(S'has'
p1239
S'become'
p1240
tp1241
a(S'that'
p1242
S'was'
p1243
tp1244
a(g1157
g202
tp1245
a(S'\xd0\xb3\xd0\xb0\xd1\x88\xd0\xb5\xd0\xba\xd0\xb0'
p1246
g15
tp1247
a(S'with'
p1248
S'both'
p1249
tp1250
a(S'\xd0\xbf\xd0\xb5\xd0\xbb\xd1\x8c\xd1\x82\xd0\xb0'
p1251
g7
tp1252
a(S'be'
p1253
g853
tp1254
a(S'exhibition'
p1255
g1186
tp1256
a(g1162
g1255
tp1257
a(S'in'
p1258
S'prague'
p1259
tp1260
a(S'willing'
p1261
S'to'
p1262
tp1263
a(g15
S'and'
p1264
tp1265
a(S'republic'
p1266
g7
tp1267
a(S'against'
p1268
S'the'
p1269
tp1270
a(S'become'
p1271
g132
tp1272
a(S'that'
p1273
S'his'
p1274
tp1275
a(S'hungary'
p1276
g7
tp1277
a(S'the'
p1278
S'club'
p1279
tp1280
a(S'hundred'
p1281
S'years'
p1282
tp1283
a(S'be'
p1284
S'the'
p1285
tp1286
a(S'in'
p1287
S'libya'
p1288
tp1289
a(S'owner'
p1290
S'of'
p1291
tp1292
a(g7
S'has'
p1293
tp1294
a(S'left'
p1295
S'empty'
p1296
tp1297
a(S'you'
p1298
S'do'
p1299
tp1300
a(S'republic'
p1301
g15
tp1302
a(S'to'
p1303
S'make'
p1304
tp1305
a(S'best'
p1306
S'player'
p1307
tp1308
a(S'rules'
p1309
g7
tp1310
a(S'their'
p1311
S'style'
p1312
tp1313
a(S'the'
p1314
S'biggest'
p1315
tp1316
a(S'next'
p1317
g736
tp1318
a(S'the'
p1319
S'following'
p1320
tp1321
a(g7
S'there'
p1322
tp1323
a(S'ca'
p1324
S"n't"
p1325
tp1326
a(S'his'
p1327
S'wife'
p1328
tp1329
a(S'agreement'
p1330
g15
tp1331
a(S'trying'
p1332
S'to'
p1333
tp1334
a(S'thanks'
p1335
S'to'
p1336
tp1337
a(S'more'
p1338
S'support'
p1339
tp1340
a(S'outdoor'
p1341
S'swimming'
p1342
tp1343
a(S'to'
p1344
g512
tp1345
a(S'clear'
p1346
S'that'
p1347
tp1348
a(S'works'
p1349
S'in'
p1350
tp1351
a(g7
g897
tp1352
a(S'and'
p1353
S'encourage'
p1354
tp1355
a(S'that'
p1356
g1012
tp1357
a(S'europe'
p1358
g7
tp1359
a(S'baths'
p1360
S'in'
p1361
tp1362
a(S'europe'
p1363
g16
tp1364
a(S'0.1'
p1365
g874
tp1366
a(S'\xd0\xbf\xd0\xb0\xd1\x86\xd0\xbb\xd0\xb8\xd0\xba'
p1367
g15
tp1368
a(S'joined'
p1369
S'the'
p1370
tp1371
a(S'the'
p1372
S'title'
p1373
tp1374
a(S'led'
p1375
S'to'
p1376
tp1377
a(S'should'
p1378
S'be'
p1379
tp1380
a(S'of'
p1381
S'law'
p1382
tp1383
a(S'the'
p1384
S'trend'
p1385
tp1386
a(S'and'
p1387
g1276
tp1388
a(S'the'
p1389
g998
tp1390
a(S'the'
p1391
g1213
tp1392
a(S'investment'
p1393
S'bank'
p1394
tp1395
a(g132
S'happy'
p1396
tp1397
a(S'and'
p1398
S'we'
p1399
tp1400
a(S'and'
p1401
S'he'
p1402
tp1403
a(S'through'
p1404
S'the'
p1405
tp1406
a(g7
S'than'
p1407
tp1408
a(S'stylist'
p1409
g906
tp1410
a(S'wants'
p1411
S'to'
p1412
tp1413
a(S'and'
p1414
S'is'
p1415
tp1416
a(S'the'
p1417
S'study'
p1418
tp1419
a(S'securities'
p1420
g15
tp1421
a(S'banks'
p1422
g15
tp1423
a(S'the'
p1424
S'relationship'
p1425
tp1426
a(S'iris'
p1427
S'\xd0\xbc\xd0\xb5\xd0\xb4\xd0\xb5\xd1\x80'
p1428
tp1429
a(g582
g7
tp1430
a(S'hard'
p1431
S'work'
p1432
tp1433
a(S'out'
p1434
S'of'
p1435
tp1436
a(S'if'
p1437
S'another'
p1438
tp1439
a(S'waist'
p1440
g7
tp1441
a(S'at'
p1442
S'some'
p1443
tp1444
a(S'to'
p1445
S'travel'
p1446
tp1447
a(g7
S'rather'
p1448
tp1449
a(S'instead'
p1450
S'of'
p1451
tp1452
a(g7
S'can'
p1453
tp1454
a(S'decided'
p1455
S'to'
p1456
tp1457
a(S'the'
p1458
S'entire'
p1459
tp1460
a(S'consulting'
p1461
S'services'
p1462
tp1463
a(S'crisis'
p1464
S'plan'
p1465
tp1466
a(S'because'
p1467
S'of'
p1468
tp1469
a(S'someone'
p1470
S'else'
p1471
tp1472
a(g7
g156
tp1473
a(g845
S'of'
p1474
tp1475
a(S'and'
p1476
g1461
tp1477
a(S'for'
p1478
S'him'
p1479
tp1480
a(S'history'
p1481
S'with'
p1482
tp1483
a(g16
S'is'
p1484
tp1485
a(S'in'
p1486
S'that'
p1487
tp1488
a(S'me'
p1489
g7
tp1490
a(g628
S'turkish'
p1491
tp1492
a(S'the'
p1493
g1198
tp1494
a(S'children'
p1495
S"'s"
p1496
tp1497
a(S'people'
p1498
S'who'
p1499
tp1500
a(g7
S'also'
p1501
tp1502
a(S'the'
p1503
S'work'
p1504
tp1505
a(S'the'
p1506
S'fight'
p1507
tp1508
a(S'as'
p1509
S'we'
p1510
tp1511
a(g7
S'although'
p1512
tp1513
a(S'of'
p1514
S'art'
p1515
tp1516
a(S'even'
p1517
g1437
tp1518
a(S'if'
p1519
S'someone'
p1520
tp1521
a(S'it'
p1522
S'has'
p1523
tp1524
a(S'then'
p1525
S'you'
p1526
tp1527
a(S'last'
p1528
S'year'
p1529
tp1530
a(S'in'
p1531
S'order'
p1532
tp1533
a(S'general'
p1534
S'meeting'
p1535
tp1536
a(S'is'
p1537
S'also'
p1538
tp1539
a(g224
S'in'
p1540
tp1541
a(S'one'
p1542
S'thing'
p1543
tp1544
a(S'that'
p1545
S'can'
p1546
tp1547
a(S'have'
p1548
S'the'
p1549
tp1550
a(S'he'
p1551
S'believes'
p1552
tp1553
a(S'world'
p1554
g15
tp1555
a(S'involved'
p1556
S'in'
p1557
tp1558
a(g16
S'from'
p1559
tp1560
a(S'building'
p1561
g15
tp1562
a(S'vice'
p1563
g628
tp1564
a(S'as'
p1565
S'head'
p1566
tp1567
a(S'the'
p1568
S'banks'
p1569
tp1570
a(S'few'
p1571
S'months'
p1572
tp1573
a(S'europe'
p1574
g15
tp1575
a(S'statistical'
p1576
S'office'
p1577
tp1578
a(S'founder'
p1579
S'of'
p1580
tp1581
a(S'over'
p1582
S'the'
p1583
tp1584
a(S'does'
p1585
S"n't"
p1586
tp1587
a(S'two'
p1588
g628
tp1589
a(S'opponent'
p1590
g15
tp1591
a(S'european'
p1592
S'championship'
p1593
tp1594
a(S'the'
p1595
S'whole'
p1596
tp1597
a(S'betting'
p1598
S'on'
p1599
tp1600
a(S'behind'
p1601
S'the'
p1602
tp1603
a(S'the'
p1604
S'socialist'
p1605
tp1606
a(S'that'
p1607
g132
tp1608
a(S'how'
p1609
S'your'
p1610
tp1611
a(S'to'
p1612
S'this'
p1613
tp1614
a(S'italy'
p1615
g7
tp1616
a(S'to'
p1617
S'create'
p1618
tp1619
a(S'is'
p1620
g69
tp1621
a(S'to'
p1622
S'go'
p1623
tp1624
a(g1373
S'of'
p1625
tp1626
a(g132
S'series'
p1627
tp1628
a(S'pilsen'
p1629
g7
tp1630
a(S'compared'
p1631
S'with'
p1632
tp1633
a(S'the'
p1634
S'meeting'
p1635
tp1636
a(g1613
S'day'
p1637
tp1638
a(S'percent'
p1639
S'of'
p1640
tp1641
a(g1637
g15
tp1642
a(S'2007'
p1643
g7
tp1644
a(S'fool'
p1645
g7
tp1646
a(S'of'
p1647
g16
tp1648
a(S'technology'
p1649
g7
tp1650
a(S'the'
p1651
S'program'
p1652
tp1653
a(S'what'
p1654
S'is'
p1655
tp1656
a(S'2008'
p1657
g7
tp1658
a(g80
S'in'
p1659
tp1660
a(S'out'
p1661
S'the'
p1662
tp1663
a(S'year'
p1664
S'and'
p1665
tp1666
a(S'one'
p1667
g628
tp1668
a(S'czech'
p1669
S'team'
p1670
tp1671
a(S'them'
p1672
S'and'
p1673
tp1674
a(S'to'
p1675
S'leave'
p1676
tp1677
a(S'which'
p1678
S'he'
p1679
tp1680
a(S'order'
p1681
S'to'
p1682
tp1683
a(g15
S'the'
p1684
tp1685
a(S'match'
p1686
g15
tp1687
a(S'return'
p1688
S'to'
p1689
tp1690
a(S'together'
p1691
g7
tp1692
a(S'comes'
p1693
g782
tp1694
a(S'think'
p1695
S'about'
p1696
tp1697
a(S'because'
p1698
S'it'
p1699
tp1700
a(S'largest'
p1701
g1138
tp1702
a(S'attitude'
p1703
S'to'
p1704
tp1705
a(S'is'
p1706
S'happening'
p1707
tp1708
a(g7
S'designed'
p1709
tp1710
a(S'('
p1711
S'the'
p1712
tp1713
a(S'expect'
p1714
g226
tp1715
a(S'food'
p1716
g7
tp1717
a(S'the'
p1718
S'gap'
p1719
tp1720
a(g819
S'been'
p1721
tp1722
a(S'attention'
p1723
S'to'
p1724
tp1725
a(S'not'
p1726
S'enough'
p1727
tp1728
a(S'you'
p1729
S'to'
p1730
tp1731
a(S'world'
p1732
S'in'
p1733
tp1734
a(S'software'
p1735
S'and'
p1736
tp1737
a(S'the'
p1738
S'moment'
p1739
tp1740
a(S'the'
p1741
S'race'
p1742
tp1743
a(S'in'
p1744
g489
tp1745
a(S'he'
p1746
S'wins'
p1747
tp1748
a(S'to'
p1749
S'see'
p1750
tp1751
a(g7
g1121
tp1752
a(g16
S'in'
p1753
tp1754
a(S'consecutive'
p1755
S'year'
p1756
tp1757
a(S'november'
p1758
S'17'
p1759
tp1760
a(S'football'
p1761
S'will'
p1762
tp1763
a(S'bag'
p1764
g7
tp1765
a(g7
S'\xd1\x80\xd0\xb0\xd0\xb9\xd1\x85\xd0\xbb'
p1766
tp1767
a(S'and'
p1768
S'based'
p1769
tp1770
a(S'and'
p1771
S'football'
p1772
tp1773
a(g2
S'course'
p1774
tp1775
a(S'banking'
p1776
g7
tp1777
a(S'law'
p1778
g7
tp1779
a(g257
S'their'
p1780
tp1781
a(S'his'
p1782
S'opinion'
p1783
tp1784
a(S'be'
p1785
S'more'
p1786
tp1787
a(S'football'
p1788
g936
tp1789
a(S'executive'
p1790
S'director'
p1791
tp1792
a(S'austria'
p1793
g7
tp1794
a(g7
S'some'
p1795
tp1796
a(S'and'
p1797
S'was'
p1798
tp1799
a(S'when'
p1800
S'the'
p1801
tp1802
a(g1747
g7
tp1803
a(S'it'
p1804
g1693
tp1805
a(S'player'
p1806
g7
tp1807
a(g628
S'in'
p1808
tp1809
a(S'in'
p1810
S'iran'
p1811
tp1812
a(S'is'
p1813
S'no'
p1814
tp1815
a(S'high'
p1816
g628
tp1817
a(S'country'
p1818
S"'s"
p1819
tp1820
a(S'faculty'
p1821
S'of'
p1822
tp1823
a(g132
S'lot'
p1824
tp1825
a(S'another'
p1826
S'candidate'
p1827
tp1828
a(S'to'
p1829
S'understand'
p1830
tp1831
a(S'that'
p1832
S'she'
p1833
tp1834
a(S'study'
p1835
g7
tp1836
a(S'investment'
p1837
S'in'
p1838
tp1839
a(S'have'
p1840
S'no'
p1841
tp1842
a(g1709
S'by'
p1843
tp1844
a(g7
S'etc.'
p1845
tp1846
a(g1234
g7
tp1847
a(S'addition'
p1848
S'to'
p1849
tp1850
a(S'to'
p1851
S'clean'
p1852
tp1853
a(S'success'
p1854
g15
tp1855
a(S'say'
p1856
g7
tp1857
a(S'the'
p1858
S'investigation'
p1859
tp1860
a(S'most'
p1861
S'powerful'
p1862
tp1863
a(S'europe'
p1864
S'is'
p1865
tp1866
a(S'associated'
p1867
S'with'
p1868
tp1869
a(S'one'
p1870
S'percent'
p1871
tp1872
a(S'to'
p1873
S'either'
p1874
tp1875
a(g7
S'said'
p1876
tp1877
a(g132
S'long'
p1878
tp1879
a(g1865
S'in'
p1880
tp1881
a(S'of'
p1882
S'education'
p1883
tp1884
a(S'the'
p1885
g1209
tp1886
a(S'take'
p1887
g607
tp1888
a(g1569
S'that'
p1889
tp1890
a(g727
S'most'
p1891
tp1892
a(S'the'
p1893
S'next'
p1894
tp1895
a(S'situation'
p1896
S'is'
p1897
tp1898
a(g132
S'man'
p1899
tp1900
a(S'you'
p1901
g7
tp1902
a(S'most'
p1903
S'of'
p1904
tp1905
a(g7
S'otherwise'
p1906
tp1907
a(S'time'
p1908
S'was'
p1909
tp1910
a(S'what'
p1911
S'we'
p1912
tp1913
a(S'to'
p1914
S'control'
p1915
tp1916
a(S'the'
p1917
S'league'
p1918
tp1919
a(S'closed'
p1920
S'at'
p1921
tp1922
a(S'was'
p1923
g16
tp1924
a(S'plans'
p1925
S'to'
p1926
tp1927
a(S'if'
p1928
g571
tp1929
a(S'visited'
p1930
S'the'
p1931
tp1932
a(g628
S'from'
p1933
tp1934
a(S'in'
p1935
S'\xd0\xbc\xd0\xb5\xd0\xbb\xd0\xbb\xd1\x8c\xd0\xbd\xd0\xb5'
p1936
tp1937
a(S'the'
p1938
S'overall'
p1939
tp1940
a(S'differently'
p1941
g15
tp1942
a(S'once'
p1943
S'again'
p1944
tp1945
a(S'things'
p1946
g404
tp1947
a(S'about'
p1948
S'his'
p1949
tp1950
a(S'both'
p1951
S'countries'
p1952
tp1953
a(S'suffering'
p1954
S'from'
p1955
tp1956
a(S'since'
p1957
S'the'
p1958
tp1959
a(S'in'
p1960
S'each'
p1961
tp1962
a(S'that'
p1963
S'for'
p1964
tp1965
a(S'in'
p1966
S'fact'
p1967
tp1968
a(S'president'
p1969
S'will'
p1970
tp1971
a(S'the'
p1972
S'government'
p1973
tp1974
a(S'billion'
p1975
S'in'
p1976
tp1977
a(g202
S'was'
p1978
tp1979
a(S'need'
p1980
S'for'
p1981
tp1982
a(S'he'
p1983
S'had'
p1984
tp1985
a(S'future'
p1986
g15
tp1987
a(S'after'
p1988
g132
tp1989
a(g1322
S'are'
p1990
tp1991
a(S'and'
p1992
S'chairman'
p1993
tp1994
a(S'money'
p1995
g7
tp1996
a(S'travel'
p1997
S'agencies'
p1998
tp1999
a(S'all'
p2000
S'these'
p2001
tp2002
a(S'this'
p2003
S'area'
p2004
tp2005
a(S'happy'
p2006
S'about'
p2007
tp2008
a(S'into'
p2009
g132
tp2010
a(S'to'
p2011
S'find'
p2012
tp2013
a(g7
S'offers'
p2014
tp2015
a(S'meetings'
p2016
g7
tp2017
a(S'to'
p2018
S'solve'
p2019
tp2020
a(S'we'
p2021
S'should'
p2022
tp2023
a(S'has'
p2024
S'lost'
p2025
tp2026
a(S'we'
p2027
S'can'
p2028
tp2029
a(S'the'
p2030
S'city'
p2031
tp2032
a(S'which'
p2033
S'the'
p2034
tp2035
a(S'to'
p2036
S'learn'
p2037
tp2038
a(g227
S'say'
p2039
tp2040
a(S'added'
p2041
g15
tp2042
a(S'player'
p2043
S'in'
p2044
tp2045
a(S'executive'
p2046
S'committee'
p2047
tp2048
a(S'to'
p2049
S'improve'
p2050
tp2051
a(S'again'
p2052
g7
tp2053
a(S'on'
p2054
S'turkish'
p2055
tp2056
a(S'on'
p2057
S'their'
p2058
tp2059
a(S'ubs'
p2060
S'was'
p2061
tp2062
a(S'the'
p2063
S'old'
p2064
tp2065
a(S'attract'
p2066
S'more'
p2067
tp2068
a(S'increased'
p2069
S'the'
p2070
tp2071
a(g1139
S'ubs'
p2072
tp2073
a(S'forms'
p2074
g7
tp2075
a(S'the'
p2076
S'country'
p2077
tp2078
a(S'water'
p2079
g15
tp2080
a(S'association'
p2081
g7
tp2082
a(S'plan'
p2083
g7
tp2084
a(S'in'
p2085
g1615
tp2086
a(S'she'
p2087
g717
tp2088
a(g181
S'as'
p2089
tp2090
a(S'are'
p2091
S'not'
p2092
tp2093
a(S'managed'
p2094
S'to'
p2095
tp2096
a(S'elections'
p2097
S'in'
p2098
tp2099
a(S'the'
p2100
g1195
tp2101
a(g202
S'were'
p2102
tp2103
a(S'in'
p2104
S'fashion'
p2105
tp2106
a(g132
S'real'
p2107
tp2108
a(g628
S'with'
p2109
tp2110
a(S'the'
p2111
S'steam'
p2112
tp2113
a(S'connected'
p2114
S'with'
p2115
tp2116
a(g628
g1464
tp2117
a(S'the'
p2118
S'recommendations'
p2119
tp2120
a(S'to'
p2121
S'grow'
p2122
tp2123
a(S'and'
p2124
S'for'
p2125
tp2126
a(S'10'
p2127
S'billion'
p2128
tp2129
a(g882
g15
tp2130
a(S'the'
p2131
g989
tp2132
a(g519
g7
tp2133
a(S'an'
p2134
S'experienced'
p2135
tp2136
a(S'technology'
p2137
S'company'
p2138
tp2139
a(g7
S'only'
p2140
tp2141
a(S'the'
p2142
S'amount'
p2143
tp2144
a(g874
g15
tp2145
a(S'parts'
p2146
S'of'
p2147
tp2148
a(S'did'
p2149
S"n't"
p2150
tp2151
a(S'that'
p2152
S'no'
p2153
tp2154
a(S'association'
p2155
g15
tp2156
a(S'both'
p2157
S'on'
p2158
tp2159
a(S'was'
p2160
S'founded'
p2161
tp2162
a(g1610
S'car'
p2163
tp2164
a(g182
g7
tp2165
a(S'ibm'
p2166
S'in'
p2167
tp2168
a(S'company'
p2169
S'was'
p2170
tp2171
a(S'without'
p2172
S'the'
p2173
tp2174
a(S'czech'
p2175
S'side'
p2176
tp2177
a(S'woman'
p2178
g7
tp2179
a(S'fight'
p2180
S'for'
p2181
tp2182
a(S'game'
p2183
S'does'
p2184
tp2185
a(S'the'
p2186
S'ubs'
p2187
tp2188
a(S'since'
p2189
S'march'
p2190
tp2191
a(S'field'
p2192
g15
tp2193
a(S'only'
p2194
S'the'
p2195
tp2196
a(g7
S'along'
p2197
tp2198
a(g7
S'their'
p2199
tp2200
a(S'would'
p2201
S'not'
p2202
tp2203
a(g132
S'woman'
p2204
tp2205
a(S'as'
p2206
S'my'
p2207
tp2208
a(S'said'
p2209
S'\xd0\xbf\xd0\xb5\xd0\xbb\xd1\x8c\xd1\x82\xd0\xb0'
p2210
tp2211
a(g7
S'after'
p2212
tp2213
a(S'prices'
p2214
g7
tp2215
a(g473
S'first'
p2216
tp2217
a(S'winners'
p2218
g7
tp2219
a(S'of'
p2220
S'three'
p2221
tp2222
a(S'the'
p2223
S'results'
p2224
tp2225
a(S'called'
p2226
S'the'
p2227
tp2228
a(S'years'
p2229
S'in'
p2230
tp2231
a(S'states'
p2232
g7
tp2233
a(S'strategy'
p2234
g7
tp2235
a(S'has'
p2236
S'not'
p2237
tp2238
a(S'question'
p2239
S'is'
p2240
tp2241
a(S'due'
p2242
S'to'
p2243
tp2244
a(S'sweet'
p2245
S'dishes'
p2246
tp2247
a(S'sport'
p2248
g7
tp2249
a(S'children'
p2250
S'who'
p2251
tp2252
a(g2251
S'suffer'
p2253
tp2254
a(S'you'
p2255
S'need'
p2256
tp2257
a(g7
S'however'
p2258
tp2259
a(S'to'
p2260
S'continue'
p2261
tp2262
a(S'with'
p2263
S'its'
p2264
tp2265
a(S'the'
p2266
S'production'
p2267
tp2268
a(g1025
S'to'
p2269
tp2270
a(g1824
S'of'
p2271
tp2272
a(S'turks'
p2273
g15
tp2274
a(S'in'
p2275
S'european'
p2276
tp2277
a(S'the'
p2278
S'pool'
p2279
tp2280
a(S'work'
p2281
S'of'
p2282
tp2283
a(S'all'
p2284
S'of'
p2285
tp2286
a(S'only'
p2287
S'five'
p2288
tp2289
a(S'that'
p2290
g1517
tp2291
a(S'nevertheless'
p2292
g7
tp2293
a(S'she'
p2294
S'has'
p2295
tp2296
a(S'while'
p2297
S'the'
p2298
tp2299
a(S'he'
p2300
S'bought'
p2301
tp2302
a(S'will'
p2303
S'need'
p2304
tp2305
a(S'so'
p2306
g7
tp2307
a(S'to'
p2308
S'save'
p2309
tp2310
a(S'to'
p2311
S'become'
p2312
tp2313
a(g1049
S'not'
p2314
tp2315
a(S'the'
p2316
S'czechs'
p2317
tp2318
a(S'and'
p2319
S'said'
p2320
tp2321
a(S'leave'
p2322
S'the'
p2323
tp2324
a(S'be'
p2325
S'on'
p2326
tp2327
a(S'czech'
p2328
S'crowns'
p2329
tp2330
a(S'lecture'
p2331
g7
tp2332
a(S'again'
p2333
g15
tp2334
a(g132
S'while'
p2335
tp2336
a(S'to'
p2337
S'to'
p2338
tp2339
a(S'tourist'
p2340
S'agencies'
p2341
tp2342
a(S'the'
p2343
S'only'
p2344
tp2345
a(S'deal'
p2346
S'with'
p2347
tp2348
a(S'the'
p2349
S'basis'
p2350
tp2351
a(S'and'
p2352
S'has'
p2353
tp2354
a(S'in'
p2355
S'their'
p2356
tp2357
a(S"n't"
p2358
S'have'
p2359
tp2360
a(S'the'
p2361
g164
tp2362
a(S'mistakes'
p2363
g7
tp2364
a(S'you'
p2365
S'get'
p2366
tp2367
a(g7
S'making'
p2368
tp2369
a(S'you'
p2370
S'will'
p2371
tp2372
a(S'and'
p2373
S'so'
p2374
tp2375
a(S'him'
p2376
g7
tp2377
a(S'and'
p2378
S'greek'
p2379
tp2380
a(S'the'
p2381
S'team'
p2382
tp2383
a(S'the'
p2384
g1579
tp2385
a(S'was'
p2386
S'in'
p2387
tp2388
a(S'says'
p2389
S'that'
p2390
tp2391
a(S'the'
p2392
S'international'
p2393
tp2394
a(S'the'
p2395
S'newspaper'
p2396
tp2397
a(S'watson'
p2398
g7
tp2399
a(g1899
g7
tp2400
a(g207
g2223
tp2401
a(S'the'
p2402
S'series'
p2403
tp2404
a(S'of'
p2405
S'our'
p2406
tp2407
a(S'later'
p2408
g7
tp2409
a(S'place'
p2410
g16
tp2411
a(g628
S'the'
p2412
tp2413
a(g7
S'she'
p2414
tp2415
a(S'the'
p2416
S'nfs'
p2417
tp2418
a(S'the'
p2419
S'field'
p2420
tp2421
a(S'and'
p2422
g372
tp2423
a(S'the'
p2424
S'management'
p2425
tp2426
a(S'is'
p2427
S'an'
p2428
tp2429
a(S'enough'
p2430
g7
tp2431
a(g16
S'this'
p2432
tp2433
a(S'is'
p2434
S'on'
p2435
tp2436
a(S'\xd1\x80\xd0\xb0\xd0\xb9\xd1\x85\xd0\xbb'
p2437
S'promises'
p2438
tp2439
a(S'the'
p2440
S'institute'
p2441
tp2442
a(S'in'
p2443
S'which'
p2444
tp2445
a(S'the'
p2446
S'president'
p2447
tp2448
a(S'bought'
p2449
S'shares'
p2450
tp2451
a(S'that'
p2452
S'this'
p2453
tp2454
a(S'history'
p2455
g7
tp2456
a(S'the'
p2457
S'american'
p2458
tp2459
a(S'we'
p2460
S'would'
p2461
tp2462
a(S'prices'
p2463
g628
tp2464
a(S'to'
p2465
S'develop'
p2466
tp2467
a(S'but'
p2468
S'they'
p2469
tp2470
a(S'zurich'
p2471
g15
tp2472
a(S'the'
p2473
S'point'
p2474
tp2475
a(S'the'
p2476
S'rest'
p2477
tp2478
a(g1307
S'of'
p2479
tp2480
a(g628
S'level'
p2481
tp2482
a(g2329
g15
tp2483
a(g7
S'thus'
p2484
tp2485
a(S'the'
p2486
S'house'
p2487
tp2488
a(S'history'
p2489
g15
tp2490
a(S'to'
p2491
S'assess'
p2492
tp2493
a(g2350
S'of'
p2494
tp2495
a(S'organization'
p2496
g15
tp2497
a(S'not'
p2498
S'be'
p2499
tp2500
a(S'enough'
p2501
S'to'
p2502
tp2503
a(g7
S'then'
p2504
tp2505
a(S'the'
p2506
S'election'
p2507
tp2508
a(g250
S'dress'
p2509
tp2510
a(S'for'
p2511
S'business'
p2512
tp2513
a(S'travel'
p2514
S'to'
p2515
tp2516
a(S'the'
p2517
S'right'
p2518
tp2519
a(S'of'
p2520
S'money'
p2521
tp2522
a(g960
S'fight'
p2523
tp2524
a(g7
S'too'
p2525
tp2526
a(S'who'
p2527
S'can'
p2528
tp2529
a(S'will'
p2530
S'have'
p2531
tp2532
a(S'difficult'
p2533
S'to'
p2534
tp2535
a(g628
S'known'
p2536
tp2537
a(S'ago'
p2538
g7
tp2539
a(S'he'
p2540
S'mostly'
p2541
tp2542
a(S'the'
p2543
S'great'
p2544
tp2545
a(g16
S'jagr'
p2546
tp2547
a(g7
S'another'
p2548
tp2549
a(S'negative'
p2550
g7
tp2551
a(S'worse'
p2552
S'and'
p2553
tp2554
a(S'the'
p2555
g1167
tp2556
a(S'be'
p2557
S'known'
p2558
tp2559
a(S'election'
p2560
S'rules'
p2561
tp2562
a(S'open'
p2563
S'the'
p2564
tp2565
a(S'continued'
p2566
S'to'
p2567
tp2568
a(S'the'
p2569
S'subsequent'
p2570
tp2571
a(g16
S'but'
p2572
tp2573
a(S'in'
p2574
S'an'
p2575
tp2576
a(S'became'
p2577
S'clear'
p2578
tp2579
a(S'1989'
p2580
g7
tp2581
a(S'argues'
p2582
S'that'
p2583
tp2584
a(g1293
S'already'
p2585
tp2586
a(S'became'
p2587
S'the'
p2588
tp2589
a(S'trains'
p2590
S'ice'
p2591
tp2592
a(S'money'
p2593
S'in'
p2594
tp2595
a(S'that'
p2596
S'each'
p2597
tp2598
a(S'the'
p2599
S'us'
p2600
tp2601
a(g7
S'under'
p2602
tp2603
a(S'to'
p2604
S'get'
p2605
tp2606
a(S'to'
p2607
S'obtain'
p2608
tp2609
a(S'while'
p2610
g2104
tp2611
a(S'?'
p2612
g16
tp2613
a(S'experts'
p2614
S'in'
p2615
tp2616
a(S'the'
p2617
S'stock'
p2618
tp2619
a(S'the'
p2620
S'stylist'
p2621
tp2622
a(S'the'
p2623
g1290
tp2624
a(S'representation'
p2625
g7
tp2626
a(S'home'
p2627
g7
tp2628
a(g106
S'home'
p2629
tp2630
a(S'where'
p2631
g132
tp2632
a(g1105
g1324
tp2633
a(S'city'
p2634
S'in'
p2635
tp2636
a(S'not'
p2637
g7
tp2638
a(S'and'
p2639
S'on'
p2640
tp2641
a(S'value'
p2642
S'of'
p2643
tp2644
a(g7
S'its'
p2645
tp2646
a(S'had'
p2647
S'been'
p2648
tp2649
a(S"'s"
p2650
g15
tp2651
a(S'banks'
p2652
S'have'
p2653
tp2654
a(S"'s"
p2655
g132
tp2656
a(g7
S'while'
p2657
tp2658
a(S'needs'
p2659
S'to'
p2660
tp2661
a(S"'s"
p2662
g7
tp2663
a(S'but'
p2664
S'not'
p2665
tp2666
a(S'the'
p2667
S'water'
p2668
tp2669
a(S'reported'
p2670
g132
tp2671
a(S'going'
p2672
S'to'
p2673
tp2674
a(S'ready'
p2675
S'to'
p2676
tp2677
a(S'executive'
p2678
S'board'
p2679
tp2680
a(S'assembly'
p2681
g218
tp2682
a(S'where'
p2683
S'she'
p2684
tp2685
a(g7
S'\xd0\xb4\xd0\xb0\xd1\x80\xd0\xb8\xd0\xbd\xd0\xb0'
p2686
tp2687
a(S'of'
p2688
S'women'
p2689
tp2690
a(S'bank'
p2691
S'in'
p2692
tp2693
a(S'and'
p2694
g985
tp2695
a(S'try'
p2696
S'to'
p2697
tp2698
a(S'the'
p2699
S'three'
p2700
tp2701
a(g2629
S'of'
p2702
tp2703
a(S'company'
p2704
S"'s"
p2705
tp2706
a(g628
S'day'
p2707
tp2708
a(S'day'
p2709
S'anniversary'
p2710
tp2711
a(g532
g7
tp2712
a(S'and'
p2713
S'they'
p2714
tp2715
a(g15
S'he'
p2716
tp2717
a(S'was'
p2718
S'so'
p2719
tp2720
a(S'team'
p2721
g7
tp2722
a(S'banks'
p2723
S'are'
p2724
tp2725
a(S'to'
p2726
S'cooperate'
p2727
tp2728
a(S'go'
p2729
S'to'
p2730
tp2731
a(S'shares'
p2732
S'in'
p2733
tp2734
a(S'to'
p2735
S'take'
p2736
tp2737
a(S'obtain'
p2738
S'visas'
p2739
tp2740
a(S'well'
p2741
g628
tp2742
a(g7
S'people'
p2743
tp2744
a(S'he'
p2745
S'does'
p2746
tp2747
a(S'turkish'
p2748
S'internet'
p2749
tp2750
a(S'museum'
p2751
S'of'
p2752
tp2753
a(S'know'
p2754
S'that'
p2755
tp2756
a(g7
S'based'
p2757
tp2758
a(S'and'
p2759
S'summer'
p2760
tp2761
a(S'to'
p2762
S'lose'
p2763
tp2764
a(S'to'
p2765
S'act'
p2766
tp2767
a(S'eventually'
p2768
S'became'
p2769
tp2770
a(g7
S'france'
p2771
tp2772
a(S'know'
p2773
g1074
tp2774
a(S'have'
p2775
S'long'
p2776
tp2777
a(S'ibm'
p2778
S'worth'
p2779
tp2780
a(S'which'
p2781
S'will'
p2782
tp2783
a(g2553
S'worse'
p2784
tp2785
a(g85
S'understand'
p2786
tp2787
a(S'the'
p2788
S'regime'
p2789
tp2790
a(S'club'
p2791
S'pilsen'
p2792
tp2793
a(S'but'
p2794
S'in'
p2795
tp2796
a(S'of'
p2797
S'clothing'
p2798
tp2799
a(S'fact'
p2800
g7
tp2801
a(S'under'
p2802
g844
tp2803
a(S'brussels'
p2804
g7
tp2805
a(S"n't"
p2806
S'see'
p2807
tp2808
a(g181
S'to'
p2809
tp2810
a(S'author'
p2811
S'of'
p2812
tp2813
a(S'says'
p2814
g15
tp2815
a(S'republic'
p2816
S'of'
p2817
tp2818
a(S'was'
p2819
S'his'
p2820
tp2821
a(g2441
S'for'
p2822
tp2823
a(S'she'
p2824
g263
tp2825
a(S'time'
p2826
S'with'
p2827
tp2828
a(g7
S'had'
p2829
tp2830
a(S'in'
p2831
S'both'
p2832
tp2833
a(S'stock'
p2834
S'exchange'
p2835
tp2836
a(S'full'
p2837
S'of'
p2838
tp2839
a(S'game'
p2840
S'is'
p2841
tp2842
a(S'was'
p2843
S'too'
p2844
tp2845
a(S'advantage'
p2846
S'in'
p2847
tp2848
a(S'group'
p2849
g7
tp2850
a(S'quarter'
p2851
g7
tp2852
a(S'company'
p2853
g15
tp2854
a(g7
S'whom'
p2855
tp2856
a(S'west'
p2857
g15
tp2858
a(S'large'
p2859
g506
tp2860
a(g7
S'president'
p2861
tp2862
a(S'to'
p2863
S'protect'
p2864
tp2865
a(S'directors'
p2866
S'in'
p2867
tp2868
a(S'be'
p2869
g7
tp2870
a(g7
g497
tp2871
a(S'\xd1\x80\xd0\xb0\xd0\xb9\xd1\x85\xd0\xbb'
p2872
g7
tp2873
a(S'said'
p2874
g1367
tp2875
a(S'to'
p2876
S'another'
p2877
tp2878
a(S'to'
p2879
S'work'
p2880
tp2881
a(S'the'
p2882
S'director'
p2883
tp2884
a(S'or'
p2885
S'to'
p2886
tp2887
a(S'in'
p2888
S'its'
p2889
tp2890
a(S'to'
p2891
S'13'
p2892
tp2893
a(S'the'
p2894
S'festival'
p2895
tp2896
a(S'so'
p2897
g15
tp2898
a(S'austria'
p2899
S'for'
p2900
tp2901
a(S'of'
p2902
S'things'
p2903
tp2904
a(S'office'
p2905
g7
tp2906
a(g2119
S'of'
p2907
tp2908
a(S'can'
p2909
S'see'
p2910
tp2911
a(S'the'
p2912
S'desert'
p2913
tp2914
a(S'were'
p2915
S'the'
p2916
tp2917
a(S'your'
p2918
S'opponent'
p2919
tp2920
a(S'the'
p2921
S'budget'
p2922
tp2923
a(S'cent'
p2924
g15
tp2925
a(S'unity'
p2926
g15
tp2927
a(S'to'
p2928
S'support'
p2929
tp2930
a(g628
S'up'
p2931
tp2932
a(S'should'
p2933
g2498
tp2934
a(S'where'
p2935
S'he'
p2936
tp2937
a(S'is'
p2938
S'too'
p2939
tp2940
a(g1184
S'is'
p2941
tp2942
a(S'the'
p2943
g1821
tp2944
a(S'things'
p2945
g15
tp2946
a(g428
g7
tp2947
a(S'third'
p2948
S'round'
p2949
tp2950
a(S'hundreds'
p2951
S'of'
p2952
tp2953
a(S'ubs'
p2954
g15
tp2955
a(S'reported'
p2956
S'that'
p2957
tp2958
a(S'is'
p2959
S'still'
p2960
tp2961
a(S'of'
p2962
g1039
tp2963
a(S'of'
p2964
g647
tp2965
a(S'will'
p2966
g515
tp2967
a(S'\xd1\x80\xd0\xb0\xd0\xb9\xd1\x85\xd0\xbb\xd0\xbe\xd0\xbc'
p2968
g7
tp2969
a(S'will'
p2970
S'the'
p2971
tp2972
a(S'myself'
p2973
g7
tp2974
a(S'wave'
p2975
S'of'
p2976
tp2977
a(S'governments'
p2978
S'in'
p2979
tp2980
a(S'!'
p2981
g16
tp2982
a(S'worth'
p2983
S'more'
p2984
tp2985
a(S'his'
p2986
S'place'
p2987
tp2988
a(S'we'
p2989
S'do'
p2990
tp2991
a(S'and'
p2992
S'public'
p2993
tp2994
a(g1039
g2127
tp2995
a(S'west'
p2996
g7
tp2997
a(S'tourists'
p2998
S'were'
p2999
tp3000
a(g451
g15
tp3001
a(S'race'
p3002
S'with'
p3003
tp3004
a(S'france'
p3005
g7
tp3006
a(S'will'
p3007
S'open'
p3008
tp3009
a(S'where'
p3010
S'it'
p3011
tp3012
a(S'the'
p3013
S'region'
p3014
tp3015
a(S'poland'
p3016
g1387
tp3017
a(S'data'
p3018
S'on'
p3019
tp3020
a(S'model'
p3021
g7
tp3022
a(g132
S'professional'
p3023
tp3024
a(S'products'
p3025
g7
tp3026
a(S"'re"
p3027
g1332
tp3028
a(g74
S'the'
p3029
tp3030
a(S'both'
p3031
S'in'
p3032
tp3033
a(S'to'
p3034
g1489
tp3035
a(S'already'
p3036
S'have'
p3037
tp3038
a(S'agrees'
p3039
S'with'
p3040
tp3041
a(g15
S"'"
p3042
tp3043
a(S'of'
p3044
g15
tp3045
a(S'compared'
p3046
S'to'
p3047
tp3048
a(S'helped'
p3049
g7
tp3050
a(S'student'
p3051
S'and'
p3052
tp3053
a(S'the'
p3054
S'original'
p3055
tp3056
a(S'the'
p3057
S'people'
p3058
tp3059
a(S'announced'
p3060
S'that'
p3061
tp3062
a(S'to'
p3063
g16
tp3064
a(S'station'
p3065
g1810
tp3066
a(S'of'
p3067
S'how'
p3068
tp3069
a(S'just'
p3070
S'the'
p3071
tp3072
a(g7
S'libya'
p3073
tp3074
a(g2507
g15
tp3075
a(S'to'
p3076
S'ensure'
p3077
tp3078
a(S'experience'
p3079
S'in'
p3080
tp3081
a(S'but'
p3082
S'if'
p3083
tp3084
a(S'is'
p3085
S'good'
p3086
tp3087
a(S'has'
p3088
S'increased'
p3089
tp3090
a(S'the'
p3091
S'need'
p3092
tp3093
a(S'promised'
p3094
S'to'
p3095
tp3096
a(S'used'
p3097
S'to'
p3098
tp3099
a(S'thing'
p3100
S'is'
p3101
tp3102
a(S'ubs'
p3103
g2024
tp3104
a(S'move'
p3105
S'to'
p3106
tp3107
a(S'also'
p3108
S'have'
p3109
tp3110
a(S'investments'
p3111
S'in'
p3112
tp3113
a(S'iran'
p3114
S"'s"
p3115
tp3116
a(S'the'
p3117
S'back'
p3118
tp3119
a(g7
S'among'
p3120
tp3121
a(g2612
g3042
tp3122
a(S'is'
p3123
S'known'
p3124
tp3125
a(S'ubs'
p3126
S'in'
p3127
tp3128
a(S'because'
p3129
S'the'
p3130
tp3131
a(S'case'
p3132
g7
tp3133
a(S'the'
p3134
S'eyes'
p3135
tp3136
a(S'to'
p3137
S'look'
p3138
tp3139
a(S'and'
p3140
S'credit'
p3141
tp3142
a(g835
S'own'
p3143
tp3144
a(S'you'
p3145
S"'ll"
p3146
tp3147
a(S'the'
p3148
S'trade'
p3149
tp3150
a(S'develop'
p3151
S'the'
p3152
tp3153
a(S'bank'
p3154
S'has'
p3155
tp3156
a(S'point'
p3157
S'in'
p3158
tp3159
a(g7
S'have'
p3160
tp3161
a(S'tuesday'
p3162
g7
tp3163
a(g555
g132
tp3164
a(S'yulia'
p3165
S'tymoshenko'
p3166
tp3167
a(S'as'
p3168
S'it'
p3169
tp3170
a(S'than'
p3171
g132
tp3172
a(S'government'
p3173
S'bonds'
p3174
tp3175
a(S'was'
p3176
g329
tp3177
a(S'the'
p3178
S'morning'
p3179
tp3180
a(S'is'
p3181
S'very'
p3182
tp3183
a(g7
S'more'
p3184
tp3185
a(S'and'
p3186
g1159
tp3187
a(S'as'
p3188
S'in'
p3189
tp3190
a(S'promises'
p3191
S'that'
p3192
tp3193
a(g7
S'would'
p3194
tp3195
a(S'for'
p3196
S'me'
p3197
tp3198
a(g85
S'will'
p3199
tp3200
a(S'my'
p3201
S'wife'
p3202
tp3203
a(S'of'
p3204
g903
tp3205
a(g7
S'whose'
p3206
tp3207
a(S'that'
p3208
S'game'
p3209
tp3210
a(g2417
g7
tp3211
a(S'mode'
p3212
g181
tp3213
a(S'it'
p3214
S'became'
p3215
tp3216
a(S'little'
p3217
S'support'
p3218
tp3219
a(S'walls'
p3220
g7
tp3221
a(S'of'
p3222
S'unity'
p3223
tp3224
a(S'at'
p3225
S'all'
p3226
tp3227
a(S'row'
p3228
g7
tp3229
a(S'than'
p3230
S'any'
p3231
tp3232
a(g15
S'in'
p3233
tp3234
a(g3231
S'other'
p3235
tp3236
a(S'desert'
p3237
g7
tp3238
a(S'level'
p3239
S'of'
p3240
tp3241
a(S'so'
p3242
S'far'
p3243
tp3244
a(S'from'
p3245
S'this'
p3246
tp3247
a(S'and'
p3248
S'czech'
p3249
tp3250
a(S'support'
p3251
S'from'
p3252
tp3253
a(g1918
g7
tp3254
a(g7
S'an'
p3255
tp3256
a(S'jagr'
p3257
S'said'
p3258
tp3259
a(S'result'
p3260
g7
tp3261
a(S'found'
p3262
g2063
tp3263
a(g541
S'how'
p3264
tp3265
a(S'you'
p3266
S'just'
p3267
tp3268
a(S'entering'
p3269
g176
tp3270
a(S'must'
p3271
S'be'
p3272
tp3273
a(S'known'
p3274
g7
tp3275
a(S'the'
p3276
S'location'
p3277
tp3278
a(S'attacks'
p3279
S'on'
p3280
tp3281
a(S'which'
p3282
S'could'
p3283
tp3284
a(S'flights'
p3285
g7
tp3286
a(S'out'
p3287
S'that'
p3288
tp3289
a(S'and'
p3290
S'software'
p3291
tp3292
a(S'and'
p3293
S'private'
p3294
tp3295
a(S'this'
p3296
S'moment'
p3297
tp3298
a(S'the'
p3299
S'winner'
p3300
tp3301
a(g7
S'many'
p3302
tp3303
a(S'to'
p3304
S'think'
p3305
tp3306
a(g7
S'without'
p3307
tp3308
a(S'was'
p3309
S'sentenced'
p3310
tp3311
a(S'i.e.'
p3312
g7
tp3313
a(S'too'
p3314
S'much'
p3315
tp3316
a(S'real'
p3317
S'life'
p3318
tp3319
a(S'than'
p3320
g7
tp3321
a(S'management'
p3322
S'and'
p3323
tp3324
a(S'when'
p3325
g1804
tp3326
a(S'speed'
p3327
g15
tp3328
a(S'on'
p3329
S'both'
p3330
tp3331
a(S'used'
p3332
S'the'
p3333
tp3334
a(S'is'
p3335
S'to'
p3336
tp3337
a(S'university'
p3338
S'students'
p3339
tp3340
a(S'refused'
p3341
S'to'
p3342
tp3343
a(S'clients'
p3344
g7
tp3345
a(S'sector'
p3346
g15
tp3347
a(S'that'
p3348
S'one'
p3349
tp3350
a(S'much'
p3351
S'more'
p3352
tp3353
a(S'standards'
p3354
g15
tp3355
a(S'the'
p3356
S'vienna'
p3357
tp3358
a(S'investment'
p3359
S'banking'
p3360
tp3361
a(S'study'
p3362
S'showed'
p3363
tp3364
a(S'delegates'
p3365
S'of'
p3366
tp3367
a(S'focus'
p3368
S'on'
p3369
tp3370
a(S'the'
p3371
S'control'
p3372
tp3373
a(S'weakness'
p3374
g15
tp3375
a(S'next'
p3376
g3034
tp3377
a(S'or'
p3378
S'her'
p3379
tp3380
a(S'hardware'
p3381
g3290
tp3382
a(S'to'
p3383
S'join'
p3384
tp3385
a(S'announced'
p3386
S'in'
p3387
tp3388
a(S'countries'
p3389
g3042
tp3390
a(S'event'
p3391
S'in'
p3392
tp3393
a(S'style'
p3394
g7
tp3395
a(S'candidates'
p3396
g7
tp3397
a(S"'re"
p3398
S'in'
p3399
tp3400
a(S'this'
p3401
g2826
tp3402
a(S'100'
p3403
S'years'
p3404
tp3405
a(S'market'
p3406
g15
tp3407
a(S'in'
p3408
S'winter'
p3409
tp3410
a(S'we'
p3411
S'already'
p3412
tp3413
a(S'least'
p3414
S'five'
p3415
tp3416
a(S'team'
p3417
S'to'
p3418
tp3419
a(S'tied'
p3420
S'to'
p3421
tp3422
a(S'where'
p3423
S'you'
p3424
tp3425
a(g1350
g3317
tp3426
a(S'citizens'
p3427
S'of'
p3428
tp3429
a(g7
S'sometimes'
p3430
tp3431
a(S'to'
p3432
S'his'
p3433
tp3434
a(S'republic'
p3435
S'in'
p3436
tp3437
a(S'net'
p3438
S'income'
p3439
tp3440
a(g16
g1761
tp3441
a(S'and'
p3442
S'their'
p3443
tp3444
a(S'this'
p3445
S'winter'
p3446
tp3447
a(S'supposed'
p3448
S'to'
p3449
tp3450
a(S'same'
p3451
S'level'
p3452
tp3453
a(S'if'
p3454
S'it'
p3455
tp3456
a(S'management'
p3457
S'as'
p3458
tp3459
a(S'or'
p3460
g7
tp3461
a(S'money'
p3462
S'for'
p3463
tp3464
a(S'in'
p3465
S'mind'
p3466
tp3467
a(S'be'
p3468
S'elected'
p3469
tp3470
a(S'if'
p3471
S'they'
p3472
tp3473
a(S'they'
p3474
S'will'
p3475
tp3476
a(g7
S'thanks'
p3477
tp3478
a(g7
S'romania'
p3479
tp3480
a(g16
S'\xd1\x80\xd0\xb8\xd1\x85\xd1\x82\xd0\xb0\xd1\x80\xd0\xb6\xd0\xbe\xd0\xb2\xd0\xb0'
p3481
tp3482
a(S'lost'
p3483
S'the'
p3484
tp3485
a(S'than'
p3486
g1667
tp3487
a(S'and'
p3488
g1253
tp3489
a(g16
S'was'
p3490
tp3491
a(S'too'
p3492
g7
tp3493
a(S'from'
p3494
S'prague'
p3495
tp3496
a(S'less'
p3497
S'telling'
p3498
tp3499
a(S'pile'
p3500
S'of'
p3501
tp3502
a(S'channel'
p3503
S'cnbc'
p3504
tp3505
a(S'croatia'
p3506
g15
tp3507
a(S'exhibition'
p3508
S'hall'
p3509
tp3510
a(S'200'
p3511
S'billion'
p3512
tp3513
a(S'lucrative'
p3514
S'career'
p3515
tp3516
a(S'soles'
p3517
S'of'
p3518
tp3519
a(g3294
S'donations'
p3520
tp3521
a(S'five'
p3522
S'times'
p3523
tp3524
a(S'travelers'
p3525
S'can'
p3526
tp3527
a(S'swiss'
p3528
S'confederation'
p3529
tp3530
a(S'j.'
p3531
S'palmisano'
p3532
tp3533
a(S'many'
p3534
S'years'
p3535
tp3536
a(S'it'
p3537
S'accuses'
p3538
tp3539
a(S'own'
p3540
S'style'
p3541
tp3542
a(S'academia'
p3543
S'offers'
p3544
tp3545
a(g85
S'had'
p3546
tp3547
a(S'the'
p3548
S'culmination'
p3549
tp3550
a(S'blame'
p3551
S'several'
p3552
tp3553
a(S'technical'
p3554
S'and'
p3555
tp3556
a(S'malfunctions'
p3557
g15
tp3558
a(g90
g2851
tp3559
a(S'follower'
p3560
S'of'
p3561
tp3562
a(g1711
S'53'
p3563
tp3564
a(S'september'
p3565
g15
tp3566
a(g628
S'collector'
p3567
tp3568
a(S'munich'
p3569
S're'
p3570
tp3571
a(S'\xd0\xb1\xd0\xbe\xd0\xb4\xd0\xb5'
p3572
S'happy'
p3573
tp3574
a(S'eurozone'
p3575
g3389
tp3576
a(g628
S'brown'
p3577
tp3578
a(S'route'
p3579
g7
tp3580
a(S'the'
p3581
S'scenes'
p3582
tp3583
a(S'new'
p3584
g1969
tp3585
a(S'13'
p3586
S'schools'
p3587
tp3588
a(g628
S'tech'
p3589
tp3590
a(S'photographer'
p3591
g7
tp3592
a(g167
S'your'
p3593
tp3594
a(S'\xd1\x8f\xd0\xb1\xd0\xbb\xd0\xbe\xd0\xbd\xd0\xb5\xd1\x86\xd0\xb0'
p3595
g15
tp3596
a(S'public'
p3597
S'\xd1\x85\xd0\xbe\xd1\x80\xd0\xbe\xd0\xb2\xd1\x83\xd1\x8e'
p3598
tp3599
a(S'open'
p3600
S'arms'
p3601
tp3602
a(S'parents'
p3603
g15
tp3604
a(S'said'
p3605
S'jakub'
p3606
tp3607
a(S'bond'
p3608
S'with'
p3609
tp3610
a(g2403
g7
tp3611
a(S'be'
p3612
S'used'
p3613
tp3614
a(S'hungary'
p3615
g15
tp3616
a(S'after'
p3617
S'that'
p3618
tp3619
a(S'780'
p3620
S'million'
p3621
tp3622
a(g3606
S'\xd1\x87\xd0\xb0\xd0\xbb\xd1\x83\xd0\xbd'
p3623
tp3624
a(S'responsibility'
p3625
S'for'
p3626
tp3627
a(S'special'
p3628
g7
tp3629
a(g628
S'discriminatory'
p3630
tp3631
a(S'britney'
p3632
S'spears'
p3633
tp3634
a(S'2000'
p3635
g15
tp3636
a(S'his'
p3637
S'chances'
p3638
tp3639
a(S'whose'
p3640
S'body'
p3641
tp3642
a(S'new'
p3643
S'york'
p3644
tp3645
a(S'long'
p3646
S'list'
p3647
tp3648
a(g628
S'prime'
p3649
tp3650
a(S'15'
p3651
g1975
tp3652
a(S'gambling'
p3653
g7
tp3654
a(S'\xd0\xba\xd0\xbe\xd0\xbd\xd0\xb2\xd0\xb5\xd1\x80\xd1\x82\xd0\xb8\xd1\x80\xd1\x83\xd0\xb5\xd0\xbc\xd1\x83\xd1\x8e'
p3655
g3608
tp3656
a(S'fears'
p3657
g15
tp3658
a(S'our'
p3659
g3540
tp3660
a(S'fiber'
p3661
S'optics'
p3662
tp3663
a(g3541
S'and'
p3664
tp3665
a(S'sergio'
p3666
S'ermotti'
p3667
tp3668
a(S'exotic'
p3669
S'country'
p3670
tp3671
a(S'case'
p3672
S'against'
p3673
tp3674
a(S'previous'
p3675
S'series'
p3676
tp3677
a(S'turkish'
p3678
S'community'
p3679
tp3680
a(g2072
g181
tp3681
a(S'was'
p3682
S'known'
p3683
tp3684
a(S'soundtrack'
p3685
S"'\xd0\xb2\xd0\xbe\xd1\x88\xd0\xbb\xd0\xb8"
p3686
tp3687
a(S'czechoslovakia'
p3688
g202
tp3689
a(S'turks'
p3690
S'in'
p3691
tp3692
a(g3118
S'row'
p3693
tp3694
a(S'culture'
p3695
S'and'
p3696
tp3697
a(S'we'
p3698
S'all'
p3699
tp3700
a(S'delegates'
p3701
g15
tp3702
a(S'13'
p3703
S'countries'
p3704
tp3705
a(g3555
S'spatial'
p3706
tp3707
a(S'harald'
p3708
S'schuman'
p3709
tp3710
a(S'budapest'
p3711
g15
tp3712
a(S'water'
p3713
S'europe'
p3714
tp3715
a(S'german'
p3716
S'and'
p3717
tp3718
a(S'pavilion'
p3719
S'was'
p3720
tp3721
a(S'three'
p3722
g2614
tp3723
a(S'his'
p3724
S'son'
p3725
tp3726
a(S'the'
p3727
S'living'
p3728
tp3729
a(g3342
S'visit'
p3730
tp3731
a(S'declarations'
p3732
g7
tp3733
a(S'equipment'
p3734
g2511
tp3735
a(S'in'
p3736
S'berlin'
p3737
tp3738
a(S'some'
p3739
S'turkish'
p3740
tp3741
a(S'investment'
p3742
S'bankers'
p3743
tp3744
a(S'lover'
p3745
S'\xd0\xb8\xd0\xb2\xd0\xb5\xd1\x82\xd1\x8b'
p3746
tp3747
a(S'ivan'
p3748
g1246
tp3749
a(S'4.5'
p3750
S'million'
p3751
tp3752
a(S'ibm'
p3753
S'5150'
p3754
tp3755
a(S'influential'
p3756
S'lobbyist'
p3757
tp3758
a(S'cooperate'
p3759
g7
tp3760
a(S'incredibly'
p3761
S'cheap'
p3762
tp3763
a(S'winner'
p3764
S'of'
p3765
tp3766
a(S'five'
p3767
S'or'
p3768
tp3769
a(S'ton'
p3770
g1711
tp3771
a(g181
S'bulgaria'
p3772
tp3773
a(g16
S'hey'
p3774
tp3775
a(S'13'
p3776
g631
tp3777
a(S'cool'
p3778
g15
tp3779
a(S'wheat'
p3780
S'and'
p3781
tp3782
a(S'you'
p3783
S'become'
p3784
tp3785
a(S'evasion'
p3786
g15
tp3787
a(S'importance'
p3788
S'of'
p3789
tp3790
a(S'ibm'
p3791
g202
tp3792
a(g1711
S'please'
p3793
tp3794
a(S'in'
p3795
S'cologne'
p3796
tp3797
a(S'if'
p3798
S'\xd0\xbf\xd0\xb5\xd0\xbb\xd1\x8c\xd1\x82\xd0\xb0'
p3799
tp3800
a(S'autumn'
p3801
S'suburbs'
p3802
tp3803
a(S'and'
p3804
g1793
tp3805
a(g3623
g7
tp3806
a(S'what'
p3807
S'about'
p3808
tp3809
a(S'when'
p3810
g85
tp3811
a(S'royal'
p3812
g801
tp3813
a(S'your'
p3814
S'speedometer'
p3815
tp3816
a(S'salzburg'
p3817
g7
tp3818
a(S'glass'
p3819
S'in'
p3820
tp3821
a(S'first'
p3822
S'vice'
p3823
tp3824
a(S'in'
p3825
g3817
tp3826
a(S'media'
p3827
S'coverage'
p3828
tp3829
a(S'important'
p3830
S'details'
p3831
tp3832
a(g7
S'downs'
p3833
tp3834
a(g2838
S'events'
p3835
tp3836
a(S'58'
p3837
S'billion'
p3838
tp3839
a(S'six'
p3840
S'months'
p3841
tp3842
a(S'term'
p3843
S'thinking'
p3844
tp3845
a(S'czech'
p3846
S'1'
p3847
tp3848
a(S'speed'
p3849
S'europe'
p3850
tp3851
a(S'aimed'
p3852
S'at'
p3853
tp3854
a(S'v\xc5\xa1eobecn\xc3\xa1'
p3855
S'zdravotn\xc3\xad'
p3856
tp3857
a(S'czech'
p3858
S'olympic'
p3859
tp3860
a(S'before'
p3861
g3269
tp3862
a(S'herman'
p3863
S'van'
p3864
tp3865
a(S'can'
p3866
S'listen'
p3867
tp3868
a(S'race'
p3869
S'in'
p3870
tp3871
a(S'youth'
p3872
g7
tp3873
a(S'significant'
p3874
g3391
tp3875
a(S'concerts'
p3876
g7
tp3877
a(S'collar'
p3878
g7
tp3879
a(g85
S'finally'
p3880
tp3881
a(g132
S'slap'
p3882
tp3883
a(S'paris'
p3884
g7
tp3885
a(g3828
S'was'
p3886
tp3887
a(S'68'
p3888
S'billion'
p3889
tp3890
a(S'private'
p3891
g2992
tp3892
a(S'300'
p3893
S'million'
p3894
tp3895
a(S'arising'
p3896
S'from'
p3897
tp3898
a(S'and'
p3899
S'sometimes'
p3900
tp3901
a(S'smarter'
p3902
S'commerce'
p3903
tp3904
a(g181
S'which'
p3905
tp3906
a(S'leather'
p3907
S'sofas'
p3908
tp3909
a(S'festa'
p3910
S'academica'
p3911
tp3912
a(g2207
S'partner'
p3913
tp3914
a(S'\xd0\xb1\xd0\xb5\xd1\x80\xd0\xb1\xd1\x80\xd0\xbe\xd0\xbc'
p3915
g7
tp3916
a(S'image'
p3917
S'and'
p3918
tp3919
a(S'revolution'
p3920
g181
tp3921
a(S'cola'
p3922
S'and'
p3923
tp3924
a(g874
g202
tp3925
a(g1382
g15
tp3926
a(S'the'
p3927
S'project'
p3928
tp3929
a(S'1960s'
p3930
g7
tp3931
a(S'players'
p3932
g15
tp3933
a(S'opinion'
p3934
g7
tp3935
a(S'ubs'
p3936
S'and'
p3937
tp3938
a(g3662
S'and'
p3939
tp3940
a(S'mercury'
p3941
g7
tp3942
a(S'education'
p3943
g7
tp3944
a(S'technical'
p3945
g3557
tp3946
a(S'easier'
p3947
g3320
tp3948
a(S's&p'
p3949
S'500'
p3950
tp3951
a(g3928
g15
tp3952
a(S'tile'
p3953
S'in'
p3954
tp3955
a(S'america'
p3956
g15
tp3957
a(S'veil'
p3958
S'of'
p3959
tp3960
a(S'guggenheim'
p3961
S'museum'
p3962
tp3963
a(S'office'
p3964
S'eurostat'
p3965
tp3966
a(S'and'
p3967
S'fish'
p3968
tp3969
a(S'many'
p3970
S'millions'
p3971
tp3972
a(g413
g3804
tp3973
a(S'and'
p3974
g557
tp3975
a(S'sotheby'
p3976
S"'s"
p3977
tp3978
a(S'the'
p3979
S'federal'
p3980
tp3981
a(S'three'
p3982
S'open'
p3983
tp3984
a(g7
g3632
tp3985
a(S'\xd0\xb1\xd0\xb5\xd1\x80\xd0\xb1\xd1\x80'
p3986
g628
tp3987
a(g824
g3788
tp3988
a(g3633
g7
tp3989
a(S'concern'
p3990
S'that'
p3991
tp3992
a(S'losers'
p3993
g15
tp3994
a(S'marble'
p3995
S'walls'
p3996
tp3997
a(S'rising'
p3998
g1230
tp3999
a(S'roof'
p4000
S'or'
p4001
tp4002
a(S'obesity'
p4003
g7
tp4004
a(g3859
S'committee'
p4005
tp4006
a(S'in'
p4007
S'1935'
p4008
tp4009
a(S'ups'
p4010
g7
tp4011
a(g3563
g202
tp4012
a(S'150'
p4013
S'to'
p4014
tp4015
a(S'and'
p4016
g3506
tp4017
a(S'operating'
p4018
S'system'
p4019
tp4020
a(S'recovered'
p4021
S'per'
p4022
tp4023
a(S'christina'
p4024
S'\xd0\xb0\xd0\xb3\xd0\xb8\xd0\xbb\xd0\xb5\xd1\x80\xd1\x83'
p4025
tp4026
a(S'family'
p4027
g15
tp4028
a(g3649
S'securities'
p4029
tp4030
a(g1039
g3651
tp4031
a(S'adding'
p4032
S'that'
p4033
tp4034
a(S'trend'
p4035
g15
tp4036
a(S'speculate'
p4037
S'on'
p4038
tp4039
a(S'our'
p4040
S'first'
p4041
tp4042
a(S'help'
p4043
S'he'
p4044
tp4045
a(g3647
S'of'
p4046
tp4047
a(g4019
g15
tp4048
a(S'20'
p4049
S'hours'
p4050
tp4051
a(S'candidates'
p4052
g15
tp4053
a(S'sub'
p4054
g628
tp4055
a(S'great'
p4056
S'depression'
p4057
tp4058
a(g2105
S'magazines'
p4059
tp4060
a(g3768
S'six'
p4061
tp4062
a(g3573
S'news'
p4063
tp4064
a(S'200'
p4065
S'km'
p4066
tp4067
a(S'forest'
p4068
g15
tp4069
a(g7
S'slovakia'
p4070
tp4071
a(S'miss'
p4072
S'european'
p4073
tp4074
a(S'\xd0\xb7\xd1\x83\xd0\xb1\xd1\x80\xd0\xb8\xd0\xbc'
p4075
S'all'
p4076
tp4077
a(g3589
S'companies'
p4078
tp4079
a(S'blocked'
p4080
S'off'
p4081
tp4082
a(g1949
S'true'
p4083
tp4084
a(g200
S'trustees'
p4085
tp4086
a(S'in'
p4087
S'2013'
p4088
tp4089
a(S'third'
p4090
g374
tp4091
a(S'vienna'
p4092
g7
tp4093
a(g3549
S'of'
p4094
tp4095
a(S'\xd0\xb7\xd0\xb0\xd1\x81\xd0\xbd\xd0\xb5\xd0\xb6\xd0\xb5\xd0\xbd\xd0\xbd\xd1\x8b\xd0\xb9'
p4096
S'\xd0\xb0\xd1\x80\xd0\xbb\xd1\x8c\xd0\xb1\xd0\xb5\xd1\x80\xd0\xb3'
p4097
tp4098
a(S'real'
p4099
S'pleasure'
p4100
tp4101
a(S'and'
p4102
S'2006'
p4103
tp4104
a(g1711
S'essentially'
p4105
tp4106
a(S'often'
p4107
S'looks'
p4108
tp4109
a(S'two'
p4110
S'weeks'
p4111
tp4112
a(S'/'
p4113
S'h'
p4114
tp4115
a(S'of'
p4116
S'sweet'
p4117
tp4118
a(g4066
g4113
tp4119
a(S'freddie'
p4120
S'mac'
p4121
tp4122
a(S'all'
p4123
S'night'
p4124
tp4125
a(S'company'
p4126
S'berkshire'
p4127
tp4128
a(g3135
S'of'
p4129
tp4130
a(S'boots'
p4131
g181
tp4132
a(g3570
g1711
tp4133
a(S'than'
p4134
S'100'
p4135
tp4136
a(S'tax'
p4137
g3786
tp4138
a(S'scott'
p4139
g15
tp4140
a(g2444
S'germany'
p4141
tp4142
a(S'secrecy'
p4143
g15
tp4144
a(g1711
S'45'
p4145
tp4146
a(S'1993'
p4147
g15
tp4148
a(g4063
g7
tp4149
a(S'education'
p4150
g181
tp4151
a(S'the'
p4152
g3930
tp4153
a(S'expansion'
p4154
S'of'
p4155
tp4156
a(S'not'
p4157
S'politically'
p4158
tp4159
a(S'and'
p4160
S'microsoft'
p4161
tp4162
a(S'lehman'
p4163
S'brothers'
p4164
tp4165
a(g628
S'presidents'
p4166
tp4167
a(S'central'
p4168
S'europe'
p4169
tp4170
a(S'meet'
p4171
S'someone'
p4172
tp4173
a(S'baths'
p4174
S'on'
p4175
tp4176
a(S'she'
p4177
g1930
tp4178
a(g3709
g7
tp4179
a(S'industry'
p4180
g7
tp4181
a(S'brilliant'
p4182
S'career'
p4183
tp4184
a(S'be'
p4185
S'completed'
p4186
tp4187
a(S'also'
p4188
S'studied'
p4189
tp4190
a(g2267
S'and'
p4191
tp4192
a(S'more'
p4193
S'willing'
p4194
tp4195
a(S'smarter'
p4196
S'planet'
p4197
tp4198
a(S'democratic'
p4199
S'republic'
p4200
tp4201
a(g3552
S'factors'
p4202
tp4203
a(S'jennifer'
p4204
S'lopez'
p4205
tp4206
a(S'in'
p4207
S'luxembourg'
p4208
tp4209
a(g15
S'you'
p4210
tp4211
a(S'sold'
p4212
S'\xd0\xbd\xd0\xb8\xd0\xb7\xd0\xba\xd0\xbe\xd0\xbf\xd1\x80\xd0\xb8\xd0\xb1\xd1\x8b\xd0\xbb\xd1\x8c\xd0\xbd\xd1\x8b\xd0\xb5'
p4213
tp4214
a(S'dow'
p4215
S'jones'
p4216
tp4217
a(g3495
S'in'
p4218
tp4219
a(g3774
g7
tp4220
a(S'the'
p4221
S'eve'
p4222
tp4223
a(g4061
S'years'
p4224
tp4225
a(S'mongomery'
p4226
g4139
tp4227
a(S'freely'
p4228
S'convertible'
p4229
tp4230
a(g7
S'praising'
p4231
tp4232
a(S'\xd1\x81\xd0\xb5\xd0\xba\xd1\x83\xd0\xbd\xd0\xb4\xd0\xbe\xd0\xbc\xd0\xb5\xd1\x80\xd0\xbe\xd0\xbc'
p4233
g202
tp4234
a(g7
S'around'
p4235
tp4236
a(g85
S'asked'
p4237
tp4238
a(S'work'
p4239
S'in'
p4240
tp4241
a(g3717
S'turkish'
p4242
tp4243
a(g7
S'austria'
p4244
tp4245
a(S'favorite'
p4246
g7
tp4247
a(g802
S'scotland'
p4248
tp4249
a(S'financial'
p4250
g3346
tp4251
a(g3856
S'poji\xc5\xa1\xc5\xa5ovna'
p4252
tp4253
a(S'and'
p4254
S'athens'
p4255
tp4256
a(S'so'
p4257
S'important'
p4258
tp4259
a(g7
S'glass'
p4260
tp4261
a(S'helmut'
p4262
S'kohl'
p4263
tp4264
a(S'all'
p4265
S'levels'
p4266
tp4267
a(g4260
S'\xd1\x85\xd0\xbe\xd0\xbb\xd0\xbb\xd0\xb0\xd0\xbc\xd0\xb8'
p4268
tp4269
a(S'suisse'
p4270
g7
tp4271
a(g3882
g15
tp4272
a(S'janney'
p4273
g4226
tp4274
a(g3959
g4143
tp4275
a(g1711
S'see'
p4276
tp4277
a(S'politicians'
p4278
S'and'
p4279
tp4280
a(S'month'
p4281
g15
tp4282
a(g16
g1141
tp4283
a(S'220'
p4284
S'billion'
p4285
tp4286
a(S'vaclav'
p4287
S'\xd0\xb3\xd0\xb0\xd0\xbc\xd0\xbf\xd0\xbb'
p4288
tp4289
a(S'simple'
p4290
S'forms'
p4291
tp4292
a(S'foreign'
p4293
S'words'
p4294
tp4295
a(S'your'
p4296
S'partner'
p4297
tp4298
a(S'every'
p4299
S'week'
p4300
tp4301
a(S'to'
p4302
S'investigate'
p4303
tp4304
a(g3796
g15
tp4305
a(S'in'
p4306
S'office'
p4307
tp4308
a(g7
g4032
tp4309
a(S'to'
p4310
S'hear'
p4311
tp4312
a(g4124
g7
tp4313
a(g1394
g4163
tp4314
a(S'1981'
p4315
g15
tp4316
a(S'signs'
p4317
S'of'
p4318
tp4319
a(S'long'
p4320
g628
tp4321
a(S'von'
p4322
S'habsburg'
p4323
tp4324
a(g628
S'arco'
p4325
tp4326
a(S'microsoft'
p4327
g7
tp4328
a(S'invest'
p4329
S'in'
p4330
tp4331
a(S'mutual'
p4332
S'delicacies'
p4333
tp4334
a(g7
S'i.e.'
p4335
tp4336
a(S'boyish'
p4337
S'figure'
p4338
tp4339
a(S'soviet'
p4340
S'union'
p4341
tp4342
a(S'investors'
p4343
S'and'
p4344
tp4345
a(S'than'
p4346
S'expected'
p4347
tp4348
a(S'and'
p4349
S'preferences'
p4350
tp4351
a(S'best'
p4352
S'expresses'
p4353
tp4354
a(S'months'
p4355
S'the'
p4356
tp4357
a(S'germans'
p4358
S'and'
p4359
tp4360
a(S'object'
p4361
g7
tp4362
a(S'museum'
p4363
S'in'
p4364
tp4365
a(g4081
g7
tp4366
a(g1491
S'bilateral'
p4367
tp4368
a(S'in'
p4369
S'july'
p4370
tp4371
a(S'challenge'
p4372
S'mode'
p4373
tp4374
a(S'german'
p4375
g4199
tp4376
a(S'in'
p4377
S'1932'
p4378
tp4379
a(S'said'
p4380
S'economist'
p4381
tp4382
a(g3746
S'\xd0\xb1\xd0\xb0\xd1\x80\xd1\x82\xd0\xbe\xd1\x88\xd0\xbe\xd0\xb2\xd0\xbe\xd0\xb9'
p4383
tp4384
a(g16
S'unfortunately'
p4385
tp4386
a(S'apple'
p4387
g4160
tp4388
a(S'visegrad'
p4389
S'group'
p4390
tp4391
a(g3939
S'status'
p4392
tp4393
a(S'from'
p4394
g3016
tp4395
a(S'sentenced'
p4396
S'to'
p4397
tp4398
a(S'karel'
p4399
S'\xd1\x80\xd1\x83\xd0\xb6\xd0\xb8\xd1\x87\xd0\xba\xd0\xb8'
p4400
tp4401
a(S'happy'
p4402
S'event'
p4403
tp4404
a(S'against'
p4405
S'one'
p4406
tp4407
a(S'credit'
p4408
g4270
tp4409
a(S'understand'
p4410
S'their'
p4411
tp4412
a(S'international'
p4413
S'business'
p4414
tp4415
a(S'fannie'
p4416
S'mae'
p4417
tp4418
a(g3908
g15
tp4419
a(S'\xd0\xba\xd0\xb0\xd0\xbd\xd1\x82\xd0\xb5\xd1\x80'
p4420
g15
tp4421
a(S'regular'
p4422
S'flights'
p4423
tp4424
a(S'ben'
p4425
g7
tp4426
a(S'francs'
p4427
g1711
tp4428
a(S'between'
p4429
S'2000'
p4430
tp4431
a(g1438
S'crisis'
p4432
tp4433
a(S'the'
p4434
S'incredible'
p4435
tp4436
a(S'symmetric'
p4437
g15
tp4438
a(g4350
g15
tp4439
a(g4183
S'\xd1\x84\xd0\xb8\xd0\xb3\xd1\x83\xd1\x80\xd0\xb8\xd1\x81\xd1\x82\xd0\xba\xd0\xb8'
p4440
tp4441
a(g4166
S'\xd0\xb4\xd0\xb0\xd0\xbb\xd0\xb8\xd0\xb1\xd0\xbe\xd1\x80\xd0\xb0'
p4442
tp4443
a(g628
g4090
tp4444
a(S'access'
p4445
S'to'
p4446
tp4447
a(S'julius'
p4448
S'baer'
p4449
tp4450
a(S'fearing'
p4451
S'that'
p4452
tp4453
a(g4208
g7
tp4454
a(S'\xd0\xb2\xd0\xbf\xd0\xb8\xd1\x88\xd0\xb5\xd1\x82\xd0\xb5\xd1\x81\xd1\x8c'
p4455
g15
tp4456
a(g3567
S'\xd1\x84\xd1\x80\xd0\xb0\xd0\xbd\xd1\x87\xd0\xb5\xd1\x81\xd0\xba\xd0\xb0'
p4457
tp4458
a(g4338
S'without'
p4459
tp4460
a(g1102
g3711
tp4461
a(S'\xd0\xbe\xd0\xb1\xd0\xbb\xd0\xb0\xd0\xb4\xd0\xb0\xd1\x82\xd0\xb5\xd0\xbb\xd1\x8c\xd0\xbd\xd0\xb8\xd1\x86\xd1\x8b'
p4462
S'\xd0\xbc\xd0\xb0\xd0\xbb\xd1\x8c\xd1\x87\xd0\xb8\xd1\x88\xd0\xb5\xd1\x81\xd0\xba\xd0\xb8\xd1\x85'
p4463
tp4464
a(S'\xd1\x85\xd1\x83\xd1\x81\xd1\x81\xd0\xbb\xd1\x8f\xd0\xb9\xd0\xbd'
p4465
g628
tp4466
a(S'provocatively'
p4467
g15
tp4468
a(g181
S'all'
p4469
tp4470
a(S'romania'
p4471
S'and'
p4472
tp4473
a(g3501
S'scrap'
p4474
tp4475
a(S'\xd0\xba\xd0\xbe\xd0\xbd\xd0\xba\xd1\x83\xd1\x80\xd0\xb5\xd0\xbd\xd1\x82\xd0\xb5'
p4476
g15
tp4477
a(S'machines'
p4478
g1711
tp4479
a(S'\xd1\x80\xd1\x8e\xd0\xb4\xd0\xb8\xd0\xb3\xd0\xb5\xd1\x80'
p4480
S'\xd0\xb3\xd1\x80\xd1\x83\xd0\xb1\xd0\xb5'
p4481
tp4482
a(g4242
S'politicians'
p4483
tp4484
a(S'and'
p4485
S'\xd0\xbc\xd1\x8f\xd1\x81\xd0\xbe\xd1\x80\xd0\xb5\xd0\xb7\xd0\xbe\xd0\xba'
p4486
tp4487
a(S'1.6'
p4488
S'billion'
p4489
tp4490
a(g7
S'slovenia'
p4491
tp4492
a(S'destruction'
p4493
S'was'
p4494
tp4495
a(S'new'
p4496
S'roles'
p4497
tp4498
a(S'and'
p4499
S'platforms'
p4500
tp4501
a(S'corruption'
p4502
g181
tp4503
a(S'was'
p4504
S'supposed'
p4505
tp4506
a(S'thailand'
p4507
g15
tp4508
a(S'one'
p4509
S'or'
p4510
tp4511
a(S'direction'
p4512
g181
tp4513
a(g132
g4182
tp4514
a(S'critical'
p4515
S'attitude'
p4516
tp4517
a(g812
g4512
tp4518
a(g3601
g15
tp4519
a(S'thomas'
p4520
S'watson'
p4521
tp4522
a(S'second'
p4523
g15
tp4524
a(g4108
S'and'
p4525
tp4526
a(g2064
S'fool'
p4527
tp4528
a(S'cooperation'
p4529
S'with'
p4530
tp4531
a(S'further'
p4532
g4317
tp4533
a(S'from'
p4534
g4425
tp4535
a(S'm\xc3\xbcnchener'
p4536
S'r\xc3\xbcck'
p4537
tp4538
a(S'seven'
p4539
g2229
tp4540
a(S'race'
p4541
g202
tp4542
a(S'german'
p4543
S'police'
p4544
tp4545
a(g7
S'lost'
p4546
tp4547
a(g7
S'84'
p4548
tp4549
a(S'to'
p4550
S'15'
p4551
tp4552
a(S'home'
p4553
S'player'
p4554
tp4555
a(S'last'
p4556
S'week'
p4557
tp4558
a(S'the'
p4559
S'pavilion'
p4560
tp4561
a(S'sochi'
p4562
g7
tp4563
a(S'committee'
p4564
g15
tp4565
a(S'conditioning'
p4566
g15
tp4567
a(S'narrow'
p4568
g1440
tp4569
a(g3032
S'isfahan'
p4570
tp4571
a(S'cycle'
p4572
g15
tp4573
a(S'presidential'
p4574
S'candidates'
p4575
tp4576
a(S'and'
p4577
S'efficient'
p4578
tp4579
a(S'italian'
p4580
S'and'
p4581
tp4582
a(S'do'
p4583
S'extra'
p4584
tp4585
a(S'other'
p4586
S'banks'
p4587
tp4588
a(S'and'
p4589
S'director'
p4590
tp4591
a(g7
S'saturn'
p4592
tp4593
a(S'charles'
p4594
S'\xd1\x80\xd0\xb0\xd0\xbd\xd0\xbb\xd0\xb5\xd1\x82'
p4595
tp4596
a(g3546
S'something'
p4597
tp4598
a(S'200'
p4599
S'million'
p4600
tp4601
a(S'my'
p4602
g4246
tp4603
a(S'certain'
p4604
S'way'
p4605
tp4606
a(S'\xd0\xb1\xd0\xbe\xd0\xb3\xd0\xb5\xd0\xbc\xd1\x86\xd0\xb5\xd0\xb2'
p4607
g181
tp4608
a(S'bank'
p4609
g541
tp4610
a(S'diverse'
p4611
S'and'
p4612
tp4613
a(S'in'
p4614
S'june'
p4615
tp4616
a(S'to'
p4617
S'show'
p4618
tp4619
a(S'meeting'
p4620
S'with'
p4621
tp4622
a(g783
g3603
tp4623
a(g3443
S'inability'
p4624
tp4625
a(g4344
S'regulators'
p4626
tp4627
a(S'clean'
p4628
g2612
tp4629
a(S'alkaline'
p4630
S'water'
p4631
tp4632
a(g4014
g4065
tp4633
a(g4105
g132
tp4634
a(g4325
g7
tp4635
a(S'\xd0\xbb\xd1\x8b\xd0\xb6\xd0\xbd\xd0\xb5'
p4636
g15
tp4637
a(S'since'
p4638
S'1997'
p4639
tp4640
a(S'basis'
p4641
g15
tp4642
a(S'sticks'
p4643
S'to'
p4644
tp4645
a(g7
S'youth'
p4646
tp4647
a(g4307
g15
tp4648
a(S'samuel'
p4649
g3531
tp4650
a(S'in'
p4651
S'situations'
p4652
tp4653
a(S'natanz'
p4654
g7
tp4655
a(S'six'
p4656
S'billion'
p4657
tp4658
a(S'team'
p4659
g654
tp4660
a(S'coca'
p4661
g628
tp4662
a(S'to'
p4663
S'please'
p4664
tp4665
a(S'two'
p4666
S'days'
p4667
tp4668
a(S'founder'
p4669
g4589
tp4670
a(S'and'
p4671
g4154
tp4672
a(S'tastes'
p4673
g4349
tp4674
a(g181
S'or'
p4675
tp4676
a(S'the'
p4677
S'regional'
p4678
tp4679
a(S'you'
p4680
g15
tp4681
a(g7
S'hungary'
p4682
tp4683
a(S'coachman'
p4684
S'and'
p4685
tp4686
a(S'legal'
p4687
g4150
tp4688
a(S'short'
p4689
S'neck'
p4690
tp4691
a(S'knives'
p4692
g4485
tp4693
a(S'in'
p4694
S'frankfurt'
p4695
tp4696
a(g628
g3922
tp4697
a(S'german'
p4698
S'authorities'
p4699
tp4700
a(g628
g3843
tp4701
a(S'since'
p4702
S'2000'
p4703
tp4704
a(S'snow'
p4705
g628
tp4706
a(g132
S'window'
p4707
tp4708
a(S'international'
p4709
S'banks'
p4710
tp4711
a(g4172
g4394
tp4712
a(S'speed'
p4713
S'in'
p4714
tp4715
a(g4472
S'poland'
p4716
tp4717
a(g4070
g7
tp4718
a(S'clash'
p4719
S'with'
p4720
tp4721
a(S'november'
p4722
S'1992'
p4723
tp4724
a(S'pages'
p4725
S'in'
p4726
tp4727
a(g7
g4024
tp4728
a(S'many'
p4729
g3690
tp4730
a(g4435
g3713
tp4731
a(S'nutrition'
p4732
S'and'
p4733
tp4734
a(S'anton'
p4735
g15
tp4736
a(g541
S'deutsche'
p4737
tp4738
a(S'and'
p4739
g3262
tp4740
a(g3641
S'is'
p4741
tp4742
a(S'from'
p4743
g4013
tp4744
a(S'chocolate'
p4745
g15
tp4746
a(S'restoration'
p4747
g4671
tp4748
a(g3980
S'bank'
p4749
tp4750
a(S'most'
p4751
S'expensive'
p4752
tp4753
a(g4333
g15
tp4754
a(g4570
S'and'
p4755
tp4756
a(S'referring'
p4757
S'to'
p4758
tp4759
a(S'better'
p4760
g4346
tp4761
a(g4414
g4478
tp4762
a(g3923
g3569
tp4763
a(g15
g3525
tp4764
a(S'their'
p4765
g4496
tp4766
a(g3867
S'to'
p4767
tp4768
a(S'whom'
p4769
g85
tp4770
a(g3372
S'group'
p4771
tp4772
a(g4430
g4102
tp4773
a(S'around'
p4774
g4680
tp4775
a(S'of'
p4776
S'america'
p4777
tp4778
a(g4397
g4539
tp4779
a(g1214
g7
tp4780
a(S'and'
p4781
g3514
tp4782
a(S'43'
p4783
S'percent'
p4784
tp4785
a(S'\xd0\xb0\xd0\xbb\xd0\xb5\xd0\xbd\xd0\xba\xd0\xbe\xd0\xb9'
p4786
g7
tp4787
a(S'window'
p4788
g3819
tp4789
a(S'the'
p4790
S'information'
p4791
tp4792
a(g1711
g3791
tp4793
a(S'funds'
p4794
g3293
tp4795
a(g4244
g2694
tp4796
a(g4755
g4654
tp4797
a(g160
g467
tp4798
a(S'too'
p4799
g4467
tp4800
a(S'stand'
p4801
S'in'
p4802
tp4803
a(g1471
g7
tp4804
a(S'hans'
p4805
S'geiger'
p4806
tp4807
a(S'an'
p4808
S'interview'
p4809
tp4810
a(S'travel'
p4811
S'bag'
p4812
tp4813
a(S'not'
p4814
S'expect'
p4815
tp4816
a(S'story'
p4817
S'mode'
p4818
tp4819
a(S'public'
p4820
g4794
tp4821
a(S'support'
p4822
S'for'
p4823
tp4824
a(S'who'
p4825
S'worked'
p4826
tp4827
a(g1981
g4713
tp4828
a(S'three'
p4829
S'candidates'
p4830
tp4831
a(S'to'
p4832
S'say'
p4833
tp4834
a(S'moving'
p4835
S'in'
p4836
tp4837
a(g4690
g7
tp4838
a(S'and'
p4839
g4120
tp4840
a(S'both'
p4841
S'teams'
p4842
tp4843
a(S'the'
p4844
S'punishment'
p4845
tp4846
a(S'always'
p4847
S'be'
p4848
tp4849
a(g4145
g202
tp4850
a(g1711
S'less'
p4851
tp4852
a(S'hotel'
p4853
S'or'
p4854
tp4855
a(g4378
g15
tp4856
a(S'the'
p4857
g4000
tp4858
a(g4417
g4839
tp4859
a(S'temporary'
p4860
g3508
tp4861
a(g4127
S'hathaway'
p4862
tp4863
a(S'responsible'
p4864
S'for'
p4865
tp4866
a(g7
g1856
tp4867
a(S'21st'
p4868
S'century'
p4869
tp4870
a(S'the'
p4871
g4868
tp4872
a(g4685
S'\xd1\x80\xd0\xb0\xd0\xb9\xd1\x85\xd0\xbb\xd0\xb0'
p4873
tp4874
a(S'and'
p4875
S'mario'
p4876
tp4877
a(S'\xd0\xbf\xd0\xb5\xd0\xbb\xd1\x8c\xd1\x82\xd0\xb5'
p4878
g15
tp4879
a(S'surrounded'
p4880
S'by'
p4881
tp4882
a(S'political'
p4883
S'level'
p4884
tp4885
a(S'attempt'
p4886
S'to'
p4887
tp4888
a(g4457
g4322
tp4889
a(S'our'
p4890
S'country'
p4891
tp4892
a(S'in'
p4893
g4722
tp4894
a(S'agency'
p4895
g15
tp4896
a(S'children'
p4897
g1711
tp4898
a(g1711
g2157
tp4899
a(g4205
g7
tp4900
a(g4491
g7
tp4901
a(S'we'
p4902
g4075
tp4903
a(S'czech'
p4904
S'national'
p4905
tp4906
a(S'toxic'
p4907
S'securities'
p4908
tp4909
a(g4624
S'to'
p4910
tp4911
a(g1605
S'period'
p4912
tp4913
a(S'opposition'
p4914
S'leader'
p4915
tp4916
a(S'first'
p4917
S'article'
p4918
tp4919
a(S'black'
p4920
S'gold'
p4921
tp4922
a(S'\xd1\x87\xd0\xb0\xd1\x80\xd1\x82\xd0\xb5\xd1\x80\xd0\xbd\xd0\xbe\xd0\xbc\xd1\x83'
p4923
S'voyage'
p4924
tp4925
a(g85
S'exaggerate'
p4926
tp4927
a(g4222
S'of'
p4928
tp4929
a(g655
g4072
tp4930
a(g4546
g4739
tp4931
a(g1733
S'1973'
p4932
tp4933
a(g2976
S'short'
p4934
tp4935
a(g3815
S'shows'
p4936
tp4937
a(g4111
S'ago'
p4938
tp4939
a(S'other'
p4940
g4052
tp4941
a(S'ubs'
p4942
S'also'
p4943
tp4944
a(S'romania'
p4945
g1711
tp4946
a(g4584
S'work'
p4947
tp4948
a(S'\xd1\x80\xd0\xb8\xd1\x85\xd1\x82\xd0\xb0\xd1\x80\xd0\xb6'
p4949
g1711
tp4950
a(S'flight'
p4951
g7
tp4952
a(g4442
g4684
tp4953
a(S'in'
p4954
g3884
tp4955
a(S'dangerous'
p4956
S'moments'
p4957
tp4958
a(S'discounts'
p4959
g15
tp4960
a(S'in'
p4961
S'october'
p4962
tp4963
a(g3520
S'and'
p4964
tp4965
a(g7
g4451
tp4966
a(g3864
S'rompuy'
p4967
tp4968
a(g4578
g7
tp4969
a(S'the'
p4970
S'revolution'
p4971
tp4972
a(S'little'
p4973
S'enthusiasm'
p4974
tp4975
a(g85
g4171
tp4976
a(g1939
S'impression'
p4977
tp4978
a(S'vienna'
p4979
S'university'
p4980
tp4981
a(S'ubs'
p4982
g4907
tp4983
a.