(lp0
(S','
p1
S'"'
p2
S'said'
p3
tp4
a(S'one'
p5
S'of'
p6
S'the'
p7
tp8
a(g1
S'and'
p9
S'the'
p10
tp11
a(S'for'
p12
S'example'
p13
g1
tp14
a(g1
g2
S'says'
p15
tp16
a(S'the'
p17
S'fact'
p18
S'that'
p19
tp20
a(g1
S'on'
p21
S'the'
p22
tp23
a(S'the'
p24
S'czech'
p25
S'republic'
p26
tp27
a(g1
g12
g13
tp28
a(S'as'
p29
S'well'
p30
S'as'
p31
tp32
a(S'board'
p33
S'of'
p34
S'directors'
p35
tp36
a(S'the'
p37
S'board'
p38
S'of'
p39
tp40
a(g1
S'in'
p41
S'the'
p42
tp43
a(S'chairman'
p44
S'of'
p45
S'the'
p46
tp47
a(S'on'
p48
S'the'
p49
S'other'
p50
tp51
a(g1
S'as'
p52
S'the'
p53
tp54
a(S'the'
p55
S'number'
p56
S'of'
p57
tp58
a(g49
g50
S'hand'
p59
tp60
a(g50
g59
g1
tp61
a(S'i'
p62
S'do'
p63
S"n't"
p64
tp65
a(S'head'
p66
S'of'
p67
S'the'
p68
tp69
a(S'part'
p70
S'of'
p71
S'the'
p72
tp73
a(g1
S'according'
p74
S'to'
p75
tp76
a(g1
S'it'
p77
S'is'
p78
tp79
a(g1
S'and'
p80
g62
tp81
a(S'of'
p82
S'the'
p83
S'board'
p84
tp85
a(g1
S'which'
p86
S'was'
p87
tp88
a(S'large'
p89
S'number'
p90
S'of'
p91
tp92
a(g1
S'which'
p93
S'is'
p94
tp95
a(S'the'
p96
S'bank'
p97
g1
tp98
a(S'anniversary'
p99
S'of'
p100
S'the'
p101
tp102
a(g1
g2
S'he'
p103
tp104
a(S'in'
p105
S'the'
p106
S'third'
p107
tp108
a(S'the'
p109
S'second'
p110
S'half'
p111
tp112
a(S'uefa'
p113
S'and'
p114
S'fifa'
p115
tp116
a(S'a'
p117
g89
g90
tp118
a(S'at'
p119
S'the'
p120
S'time'
p121
tp122
a(S'billion'
p123
S'swiss'
p124
S'francs'
p125
tp126
a(S'the'
p127
S'same'
p128
S'time'
p129
tp130
a(S'of'
p131
S'one'
p132
S'of'
p133
tp134
a(S'in'
p135
S'the'
p136
S'future'
p137
tp138
a(S'of'
p139
S'course'
p140
g1
tp141
a(S'is'
p142
S'not'
p143
g117
tp144
a(g1
S'such'
p145
S'as'
p146
tp147
a(S'czech'
p148
S'football'
p149
S'.'
p150
tp151
a(g1
S'with'
p152
S'whom'
p153
tp154
a(S'the'
p155
S'history'
p156
S'of'
p157
tp158
a(S'the'
p159
S'world'
p160
S"'s"
p161
tp162
a(S'of'
p163
S'the'
p164
S'bank'
p165
tp166
a(S'of'
p167
S'the'
p168
S'largest'
p169
tp170
a(S'bank'
p171
g1
S'which'
p172
tp173
a(S'would'
p174
S'like'
p175
S'to'
p176
tp177
a(g1
S'which'
p178
S'has'
p179
tp180
a(S'at'
p181
S'the'
p182
S'same'
p183
tp184
a(S'the'
p185
S'united'
p186
S'states'
p187
tp188
a(g1
S'miroslav'
p189
S'\xd0\xbf\xd0\xb5\xd0\xbb\xd1\x8c\xd1\x82\xd0\xb0'
p190
tp191
a(S'obesity'
p192
S'is'
p193
S'not'
p194
tp195
a(S'the'
p196
S'end'
p197
S'of'
p198
tp199
a(g1
S'it'
p200
S'was'
p201
tp202
a(S'the'
p203
S'czech'
p204
S'football'
p205
tp206
a(S'according'
p207
S'to'
p208
S'the'
p209
tp210
a(g194
g117
S'coincidence'
p211
tp212
a(S'this'
p213
S'is'
p214
S'especially'
p215
tp216
a(S'in'
p217
S'september'
p218
g1
tp219
a(S'of'
p220
S'directors'
p221
S'of'
p222
tp223
a(g1
S'will'
p224
S'be'
p225
tp226
a(S'in'
p227
S'the'
p228
S'first'
p229
tp230
a(S'based'
p231
S'on'
p232
S'the'
p233
tp234
a(S'as'
p235
g117
S'result'
p236
tp237
a(S'the'
p238
S'general'
p239
S'assembly'
p240
tp241
a(S'in'
p242
g109
g110
tp243
a(S'do'
p244
S"n't"
p245
S'want'
p246
tp247
a(S'more'
p248
S'than'
p249
S'$'
p250
tp251
a(S'the'
p252
S'beginning'
p253
S'of'
p254
tp255
a(g1
S'so'
p256
S'that'
p257
tp258
a(g62
S'want'
p259
S'to'
p260
tp261
a(S'promised'
p262
S'that'
p263
S'if'
p264
tp265
a(g2
S'he'
p266
S'said'
p267
tp268
a(g1
S'but'
p269
S'it'
p270
tp271
a(S'months'
p272
S'ago'
p273
g150
tp274
a(S'and'
p275
S'eastern'
p276
S'europe'
p277
tp278
a(S'two'
p279
g272
g273
tp280
a(S'young'
p281
S'people'
p282
g150
tp283
a(S'buffett'
p284
S'said'
p285
S'that'
p286
tp287
a(g150
S'according'
p288
S'to'
p289
tp290
a(S'thomas'
p291
S'j.'
p292
S'watson'
p293
tp294
a(S'many'
p295
S'of'
p296
S'the'
p297
tp298
a(S'central'
p299
g275
g276
tp300
a(S'swimming'
p301
S'pool'
p302
S'in'
p303
tp304
a(S'the'
p305
S'black'
p306
S'sea'
p307
tp308
a(S'the'
p309
S'1958'
p310
S'world'
p311
tp312
a(S'for'
p313
g309
g310
tp314
a(S'between'
p315
S'the'
p316
S'two'
p317
tp318
a(S'in'
p319
S'germany'
p320
g150
tp321
a(S'the'
p322
S'50th'
p323
S'anniversary'
p324
tp325
a(g1
S'the'
p326
S'more'
p327
tp328
a(S'from'
p329
S'obesity'
p330
g150
tp331
a(g306
g307
S')'
p332
tp333
a(S'deutsche'
p334
S'bahn'
p335
g1
tp336
a(g310
g311
S'exhibition'
p337
tp338
a(S'czech'
p339
S'republic'
p340
g1
tp341
a(g337
S'in'
p342
S'brussels'
p343
tp344
a(S'be'
p345
S'able'
p346
S'to'
p347
tp348
a(S'in'
p349
S'germany'
p350
g1
tp351
a(g323
g324
S'of'
p352
tp353
a(g311
g337
g342
tp354
a(S'on'
p355
S'the'
p356
S'market'
p357
tp358
a(S'czech'
p359
S'republic'
p360
g150
tp361
a(S'next'
p362
S'year'
p363
g150
tp364
a(S'place'
p365
S'in'
p366
S'the'
p367
tp368
a(S'miroslav'
p369
S'\xd0\xbf\xd0\xb5\xd0\xbb\xd1\x8c\xd1\x82\xd0\xb0'
p370
g1
tp371
a(S'swiss'
p372
S'banks'
p373
g1
tp374
a(S'some'
p375
S'of'
p376
S'the'
p377
tp378
a(g106
g107
S'quarter'
p379
tp380
a(S'the'
p381
S'opposite'
p382
S'direction'
p383
tp384
a(S'some'
p385
S'of'
p386
S'them'
p387
tp388
a(S'on'
p389
S'how'
p390
S'to'
p391
tp392
a(S'the'
p393
S'past'
p394
g1
tp395
a(g117
S'few'
p396
S'years'
p397
tp398
a(S'of'
p399
S'the'
p400
S'czech'
p401
tp402
a(g114
g115
g1
tp403
a(S'despite'
p404
g17
g18
tp405
a(g1
S'rather'
p406
S'than'
p407
tp408
a(g2
g62
S'have'
p409
tp410
a(g307
g332
S';'
p411
tp412
a(g1
g66
g67
tp413
a(g1
S'but'
p414
S'the'
p415
tp416
a(S'of'
p417
S'the'
p418
S'company'
p419
tp420
a(S'and'
p421
S'consulting'
p422
S'services'
p423
tp424
a(S'german'
p425
S'-'
p426
S'turkish'
p427
tp428
a(g101
S'velvet'
p429
S'revolution'
p430
tp431
a(S'in'
p432
S'prague'
p433
g1
tp434
a(S'in'
p435
g155
g156
tp436
a(g111
S'of'
p437
S'the'
p438
tp439
a(S'as'
p440
S'head'
p441
S'of'
p442
tp443
a(g117
S'few'
p444
S'months'
p445
tp446
a(g1
S'where'
p447
S'the'
p448
tp449
a(S'in'
p450
S'the'
p451
S'united'
p452
tp453
a(S'and'
p454
g62
S'do'
p455
tp456
a(S'of'
p457
S'the'
p458
S'game'
p459
tp460
a(S'on'
p461
g305
g306
tp462
a(g289
S'the'
p463
S'czech'
p464
tp465
a(S'to'
p466
g117
S'large'
p467
tp468
a(g110
g111
g437
tp469
a(S'in'
p470
S'europe'
p471
g150
tp472
a(g458
g459
g150
tp473
a(g100
g101
g429
tp474
a(S'situation'
p475
S'in'
p476
S'the'
p477
tp478
a(g2
S'it'
p479
S'was'
p480
tp481
a(S'the'
p482
g475
g476
tp483
a(S'the'
p484
S'building'
p485
S'was'
p486
tp487
a(S'what'
p488
S'is'
p489
S'happening'
p490
tp491
a(g117
S'series'
p492
S'of'
p493
tp494
a(S'largest'
p495
S'swiss'
p496
S'bank'
p497
tp498
a(S'this'
p499
S'is'
p500
S'the'
p501
tp502
a(S'the'
p503
g495
g496
tp504
a(S'is'
p505
g5
g6
tp506
a(S"'s"
p507
S'nuclear'
p508
S'program'
p509
tp510
a(S'the'
p511
S'title'
p512
S'of'
p513
tp514
a(S'he'
p515
S'believes'
p516
S'that'
p517
tp518
a(S'you'
p519
S'do'
p520
S"n't"
p521
tp522
a(S'if'
p523
S'he'
p524
S'wins'
p525
tp526
a(S'thanks'
p527
S'to'
p528
S'the'
p529
tp530
a(S'the'
p531
S'world'
p532
g150
tp533
a(S'in'
p534
S'order'
p535
S'to'
p536
tp537
a(S'in'
p538
S'the'
p539
S'past'
p540
tp541
a(S'in'
p542
g381
g382
tp543
a(S'them'
p544
g1
g2
tp545
a(g1
S'as'
p546
S'well'
p547
tp548
a(S'the'
p549
S'price'
p550
S'of'
p551
tp552
a(S'from'
p553
S'the'
p554
S'czech'
p555
tp556
a(S'in'
p557
S'2007'
p558
g1
tp559
a(S'the'
p560
S'name'
p561
S'of'
p562
tp563
a(S'deutsche'
p564
S'bank'
p565
g150
tp566
a(S'in'
p567
S'the'
p568
S'world'
p569
tp570
a(S'of'
p571
S'the'
p572
S'german'
p573
tp574
a(S'this'
p575
S'means'
p576
S'that'
p577
tp578
a(S'association'
p579
S'in'
p580
S'the'
p581
tp582
a(S'in'
p583
S'addition'
p584
S'to'
p585
tp586
a(S'the'
p587
S'building'
p588
g150
tp589
a(S'the'
p590
S'program'
p591
g150
tp592
a(S'of'
p593
S'the'
p594
S'socialist'
p595
tp596
a(S'the'
p597
S'charter'
p598
g1
tp599
a(g1
g62
g174
tp600
a(g524
g525
g1
tp601
a(S'president'
p602
S'of'
p603
S'the'
p604
tp605
a(S'the'
p606
S'time'
p607
g1
tp608
a(S'in'
p609
S'the'
p610
S'czech'
p611
tp612
a(g1
g24
g25
tp613
a(g1
S'and'
p614
S'not'
p615
tp616
a(S'but'
p617
S'it'
p618
S'is'
p619
tp620
a(g264
S'elected'
p621
g1
tp622
a(S'another'
p623
S'candidate'
p624
g1
tp625
a(g1
S'but'
p626
S'he'
p627
tp628
a(g160
g161
S'most'
p629
tp630
a(g62
S'would'
p631
S'have'
p632
tp633
a(S'rates'
p634
S'on'
p635
S'the'
p636
tp637
a(g1
S'designed'
p638
S'by'
p639
tp640
a(S'at'
p641
S'the'
p642
S'moment'
p643
tp644
a(S'country'
p645
g507
g508
tp646
a(g1
S'it'
p647
S"'s"
p648
tp649
a(S'it'
p650
S'comes'
p651
S'to'
p652
tp653
a(S'before'
p654
S'the'
p655
S'general'
p656
tp657
a(S'the'
p658
g425
g426
tp659
a(g496
g497
S'ubs'
p660
tp661
a(S'most'
p662
S'of'
p663
S'the'
p664
tp665
a(S'director'
p666
S'of'
p667
S'the'
p668
tp669
a(g1
S'that'
p670
S'he'
p671
tp672
a(S'the'
p673
S'best'
p674
S'player'
p675
tp676
a(g411
S'as'
p677
S'well'
p678
tp679
a(g263
g264
g621
tp680
a(g1
S'when'
p681
S'the'
p682
tp683
a(g2
S'from'
p684
S'the'
p685
tp686
a(S"n't"
p687
S'want'
p688
S'to'
p689
tp690
a(S'anti'
p691
g426
S'crisis'
p692
tp693
a(S'in'
p694
S'addition'
p695
g1
tp696
a(g426
g692
S'plan'
p697
tp698
a(g128
g129
g1
tp699
a(S'the'
p700
S'financial'
p701
S'crisis'
p702
tp703
a(S'game'
p704
S'does'
p705
S'not'
p706
tp707
a(g1
S'along'
p708
S'with'
p709
tp710
a(S'and'
p711
S'chairman'
p712
S'of'
p713
tp714
a(S'in'
p715
S'the'
p716
S'european'
p717
tp718
a(S'swimming'
p719
S'pools'
p720
S'in'
p721
tp722
a(S'shares'
p723
S'of'
p724
S'ibm'
p725
tp726
a(S'to'
p727
S'this'
p728
S'day'
p729
tp730
a(S'to'
p731
S'the'
p732
S'west'
p733
tp734
a(S'that'
p735
S'for'
p736
S'the'
p737
tp738
a(g197
g198
S'the'
p739
tp740
a(g117
S'lot'
p741
S'of'
p742
tp743
a(S'of'
p744
S'children'
p745
S'who'
p746
tp747
a(S'in'
p748
S'the'
p749
S'pool'
p750
tp751
a(S'it'
p752
S'was'
p753
g117
tp754
a(g746
S'suffer'
p755
S'from'
p756
tp757
a(g71
g72
S'time'
p758
tp759
a(S'the'
p760
S'executive'
p761
S'committee'
p762
tp763
a(g107
g379
g150
tp764
a(S'the'
p765
S'national'
p766
S'bank'
p767
tp768
a(S'will'
p769
S'need'
p770
S'to'
p771
tp772
a(S'attitude'
p773
S'to'
p774
S'the'
p775
tp776
a(S'is'
p777
g117
S'candidate'
p778
tp779
a(S'in'
p780
S'the'
p781
S'association'
p782
tp783
a(S'in'
p784
S'the'
p785
S'end'
p786
tp787
a(S'the'
p788
S'time'
p789
S'was'
p790
tp791
a(g745
g746
g755
tp792
a(g2
S'said'
p793
S'\xd0\xbf\xd0\xb5\xd0\xbb\xd1\x8c\xd1\x82\xd0\xb0'
p794
tp795
a(S'parts'
p796
S'of'
p797
S'the'
p798
tp799
a(S'suffering'
p800
S'from'
p801
S'obesity'
p802
tp803
a(S'moreover'
p804
g1
S'he'
p805
tp806
a(S'will'
p807
S'take'
p808
g365
tp809
a(S'in'
p810
S'italy'
p811
g1
tp812
a(S'the'
p813
S'amount'
p814
S'of'
p815
tp816
a(g1
S'he'
p817
S'will'
p818
tp819
a(S'suffer'
p820
g329
g330
tp821
a(S'well'
p822
S'as'
p823
S'the'
p824
tp825
a(S'is'
p826
S'the'
p827
S'best'
p828
tp829
a(S'the'
p830
S'meeting'
p831
g1
tp832
a(S'of'
p833
S'the'
p834
S'museum'
p835
tp836
a(S'the'
p837
S'future'
p838
g150
tp839
a(S'is'
p840
S'unlikely'
p841
S'to'
p842
tp843
a(S'can'
p844
S'be'
p845
g117
tp846
a(g1
S'there'
p847
S'is'
p848
tp849
a(S'2008'
p850
g1
S'the'
p851
tp852
a(S'the'
p853
S'situation'
p854
S'is'
p855
tp856
a(S'you'
p857
S'have'
p858
S'to'
p859
tp860
a(S'example'
p861
g1
S'in'
p862
tp863
a(g2
S'and'
p864
S'yet'
p865
tp866
a(S'owner'
p867
S'of'
p868
S'the'
p869
tp870
a(g1
S'but'
p871
S'they'
p872
tp873
a(S'in'
p874
S'the'
p875
S'investment'
p876
tp877
a(g2
g62
g63
tp878
a(S'the'
p879
S'bank'
p880
S"'s"
p881
tp882
a(g674
g675
S'of'
p883
tp884
a(S'czech'
p885
S'crowns'
p886
g150
tp887
a(S'that'
p888
g1
S'in'
p889
tp890
a(S'the'
p891
S'basis'
p892
S'of'
p893
tp894
a(S'be'
p895
g117
S'real'
p896
tp897
a(g1
g62
S"'m"
p898
tp899
a(S'j.'
p900
S'watson'
p901
g1
tp902
a(g1
S'this'
p903
S'is'
p904
tp905
a(S'the'
p906
g564
g565
tp907
a(S'connected'
p908
S'with'
p909
S'the'
p910
tp911
a(S'he'
p912
S'said'
p913
g1
tp914
a(g1
g2
S'jagr'
p915
tp916
a(S'you'
p917
S'need'
p918
S'to'
p919
tp920
a(g18
g19
g482
tp921
a(S'the'
p922
S'owner'
p923
S'of'
p924
tp925
a(S'and'
p926
S'in'
p927
S'the'
p928
tp929
a(S'we'
p930
S'ca'
p931
S"n't"
p932
tp933
a(S'in'
p934
S'the'
p935
S'fight'
p936
tp937
a(S'the'
p938
S'world'
p939
S'in'
p940
tp941
a(g1
S'thomas'
p942
S'j.'
p943
tp944
a(S'of'
p945
S'the'
p946
S'series'
p947
tp948
a(S'travel'
p949
g731
g732
tp950
a(S'the'
p951
S'former'
p952
S'czechoslovakia'
p953
tp954
a(S'do'
p955
S"n't"
p956
S'have'
p957
tp958
a(g1
g339
g340
tp959
a(S'billion'
p960
g1
S'and'
p961
tp962
a(g1
S'of'
p963
S'course'
p964
tp965
a(S'and'
p966
S'based'
p967
S'on'
p968
tp969
a(S'in'
p970
g590
g591
tp971
a(g1
S'which'
p972
S'we'
p973
tp974
a(S'and'
p975
S'the'
p976
S'subsequent'
p977
tp978
a(S'result'
p979
S'of'
p980
S'the'
p981
tp982
a(g1
S'where'
p983
g117
tp984
a(S'day'
p985
S'anniversary'
p986
S'of'
p987
tp988
a(S'of'
p989
S'the'
p990
S'world'
p991
tp992
a(S'that'
p993
S'if'
p994
S'he'
p995
tp996
a(g635
g636
S'world'
p997
tp998
a(S'and'
p999
g203
g204
tp1000
a(g1
S'thus'
p1001
g1
tp1002
a(S'in'
p1003
S'football'
p1004
g1
tp1005
a(S'to'
p1006
S'obtain'
p1007
S'visas'
p1008
tp1009
a(g2
g1
g2
tp1010
a(S'well'
p1011
g426
S'known'
p1012
tp1013
a(S'for'
p1014
S'him'
p1015
g1
tp1016
a(g656
S'assembly'
p1017
g217
tp1018
a(S'in'
p1019
S'this'
p1020
S'area'
p1021
tp1022
a(g1
S'based'
p1023
S'on'
p1024
tp1025
a(S'of'
p1026
S'the'
p1027
S'match'
p1028
tp1029
a(g1
S'the'
p1030
S'bank'
p1031
tp1032
a(g1
S'in'
p1033
S'which'
p1034
tp1035
a(g1
S'he'
p1036
S'has'
p1037
tp1038
a(S'there'
p1039
S'is'
p1040
g117
tp1041
a(S'of'
p1042
S'their'
p1043
S'own'
p1044
tp1045
a(S'in'
p1046
S'brussels'
p1047
g1
tp1048
a(S'that'
p1049
S'the'
p1050
S'banks'
p1051
tp1052
a(S'the'
p1053
S'museum'
p1054
S'of'
p1055
tp1056
a(S'the'
p1057
S'most'
p1058
S'powerful'
p1059
tp1060
a(g2
S'said'
p1061
S'\xd0\xbf\xd0\xb0\xd1\x86\xd0\xbb\xd0\xb8\xd0\xba'
p1062
tp1063
a(S'the'
p1064
S'general'
p1065
S'meeting'
p1066
tp1067
a(S'that'
p1068
S'in'
p1069
S'the'
p1070
tp1071
a(g1061
g1062
g150
tp1072
a(g1
S'he'
p1073
S'mostly'
p1074
tp1075
a(g675
g883
S'the'
p1076
tp1077
a(S'the'
p1078
S'work'
p1079
S'of'
p1080
tp1081
a(S'large'
p1082
S'amount'
p1083
S'of'
p1084
tp1085
a(S'of'
p1086
S'directors'
p1087
S'in'
p1088
tp1089
a(S'worse'
p1090
S'and'
p1091
S'worse'
p1092
tp1093
a(S'services'
p1094
g1
S'and'
p1095
tp1096
a(S'of'
p1097
S'the'
p1098
S'new'
p1099
tp1100
a(S'want'
p1101
S'to'
p1102
S'do'
p1103
tp1104
a(S'as'
p1105
S'the'
p1106
S'main'
p1107
tp1108
a(S'so'
p1109
S'that'
p1110
S'you'
p1111
tp1112
a(g1
S'and'
p1113
S'they'
p1114
tp1115
a(S'in'
p1116
g951
g952
tp1117
a(S'ibm'
p1118
S'in'
p1119
S'the'
p1120
tp1121
a(g218
g1
S'the'
p1122
tp1123
a(S'\xd0\xb9\xd0\xb8\xd0\xbd\xd0\xb4\xd1\x80\xd0\xb6\xd0\xb8\xd1\x85\xd0\xbe\xd0\xbc'
p1124
S'\xd1\x80\xd0\xb0\xd0\xb9\xd1\x85\xd0\xbb\xd0\xbe\xd0\xbc'
p1125
g1
tp1126
a(S'the'
p1127
S'faculty'
p1128
S'of'
p1129
tp1130
a(S'history'
p1131
S'of'
p1132
S'the'
p1133
tp1134
a(S'the'
p1135
S'third'
p1136
S'round'
p1137
tp1138
a(S'bank'
p1139
S'in'
p1140
S'the'
p1141
tp1142
a(S'president'
p1143
S'will'
p1144
S'be'
p1145
tp1146
a(S'be'
p1147
S'on'
p1148
S'the'
p1149
tp1150
a(S'austria'
p1151
g313
g309
tp1152
a(g250
S'10'
p1153
S'billion'
p1154
tp1155
a(S'the'
p1156
S'west'
p1157
g150
tp1158
a(g1
S'which'
p1159
S'he'
p1160
tp1161
a(S'worth'
p1162
S'more'
p1163
S'than'
p1164
tp1165
a(g117
g1082
g1083
tp1166
a(g808
g365
g366
tp1167
a(S'czech'
p1168
S'tourists'
p1169
S'were'
p1170
tp1171
a(S'around'
p1172
S'the'
p1173
S'world'
p1174
tp1175
a(S'technology'
p1176
S'company'
p1177
g1
tp1178
a(S"'re"
p1179
S'trying'
p1180
S'to'
p1181
tp1182
a(S'few'
p1183
S'years'
p1184
g1
tp1185
a(S'amount'
p1186
S'of'
p1187
S'money'
p1188
tp1189
a(g1
g284
g285
tp1190
a(g1
S'because'
p1191
S'it'
p1192
tp1193
a(g1
S'but'
p1194
S'not'
p1195
tp1196
a(g2
S'if'
p1197
S'the'
p1198
tp1199
a(g1
S'president'
p1200
S'of'
p1201
tp1202
a(S'you'
p1203
g1179
g1180
tp1204
a(g117
S'result'
p1205
S'of'
p1206
tp1207
a(S'per'
p1208
S'cent'
p1209
g150
tp1210
a(S'became'
p1211
S'clear'
p1212
S'that'
p1213
tp1214
a(S'of'
p1215
S'women'
p1216
g1
tp1217
a(S'rather'
p1218
S'than'
p1219
S'the'
p1220
tp1221
a(g2
g15
S'the'
p1222
tp1223
a(S'you'
p1224
S'can'
p1225
S'see'
p1226
tp1227
a(g2
S'if'
p1228
S'he'
p1229
tp1230
a(S'advantage'
p1231
S'in'
p1232
S'the'
p1233
tp1234
a(S'the'
p1235
g979
g980
tp1236
a(S'the'
p1237
S'recommendations'
p1238
S'of'
p1239
tp1240
a(g1
S'the'
p1241
S'situation'
p1242
tp1243
a(S'of'
p1244
S'deutsche'
p1245
S'bank'
p1246
tp1247
a(g2
S'he'
p1248
S"'s"
p1249
tp1250
a(S'for'
p1251
S'the'
p1252
S'bank'
p1253
tp1254
a(S'and'
p1255
S'israel'
p1256
g150
tp1257
a(S'in'
p1258
S'ibm'
p1259
S'worth'
p1260
tp1261
a(S'in'
p1262
S'the'
p1263
S'morning'
p1264
tp1265
a(S'based'
p1266
S'on'
p1267
S'their'
p1268
tp1269
a(S'and'
p1270
S'now'
p1271
g1
tp1272
a(S'is'
p1273
S'on'
p1274
S'the'
p1275
tp1276
a(S'will'
p1277
S'be'
p1278
S'more'
p1279
tp1280
a(S'he'
p1281
S'bought'
p1282
S'shares'
p1283
tp1284
a(S'than'
p1285
S'any'
p1286
S'other'
p1287
tp1288
a(S'of'
p1289
g1064
g1065
tp1290
a(S'to'
p1291
g1
S'to'
p1292
tp1293
a(S'the'
p1294
S'game'
p1295
S'is'
p1296
tp1297
a(g1
S'however'
p1298
g1
tp1299
a(S'technology'
p1300
g1
S'and'
p1301
tp1302
a(S'elected'
p1303
g1
S'the'
p1304
tp1305
a(g117
S'result'
p1306
g1
tp1307
a(g249
g250
g1153
tp1308
a(S'the'
p1309
S'west'
p1310
g1
tp1311
a(g1
S'and'
p1312
S'now'
p1313
tp1314
a(S'in'
p1315
S'the'
p1316
S'german'
p1317
tp1318
a(g117
S'candidate'
p1319
g1
tp1320
a(S'real'
p1321
S'life'
p1322
g150
tp1323
a(g1
S'that'
p1324
S'the'
p1325
tp1326
a(S'can'
p1327
S'see'
p1328
S'the'
p1329
tp1330
a(S':'
p1331
S'how'
p1332
S'to'
p1333
tp1334
a(S'will'
p1335
S'continue'
p1336
S'to'
p1337
tp1338
a(g2
g62
g259
tp1339
a(S'it'
p1340
S'will'
p1341
S'take'
p1342
tp1343
a(g426
S'in'
p1344
S'the'
p1345
tp1346
a(S'he'
p1347
S'said'
p1348
g150
tp1349
a(S'delegates'
p1350
g1289
g1064
tp1351
a(g621
g1
S'he'
p1352
tp1353
a(S'and'
p1354
S'yet'
p1355
g1
tp1356
a(S'price'
p1357
S'of'
p1358
g723
tp1359
a(S'at'
p1360
S'least'
p1361
g117
tp1362
a(S'is'
p1363
S'the'
p1364
S'candidate'
p1365
tp1366
a(S'hardware'
p1367
S'and'
p1368
S'software'
p1369
tp1370
a(g150
g999
g203
tp1371
a(S'you'
p1372
S"'re"
p1373
S'in'
p1374
tp1375
a(S'in'
p1376
g299
g275
tp1377
a(S'\xd1\x80\xd0\xb0\xd0\xb9\xd1\x85\xd0\xbb'
p1378
S'promises'
p1379
S'that'
p1380
tp1381
a(g411
S'it'
p1382
S'is'
p1383
tp1384
a(S'director'
p1385
g1
S'thomas'
p1386
tp1387
a(S'was'
p1388
g117
S'great'
p1389
tp1390
a(S'czech'
p1391
S'republic'
p1392
S'in'
p1393
tp1394
a(g1
S'france'
p1395
g1
tp1396
a(S'in'
p1397
S'the'
p1398
S'last'
p1399
tp1400
a(S'in'
p1401
g1321
g1322
tp1402
a(S'at'
p1403
S'least'
p1404
S'five'
p1405
tp1406
a(g1
S'thanks'
p1407
S'to'
p1408
tp1409
a(S'in'
p1410
S'the'
p1411
S'country'
p1412
tp1413
a(g1331
g2
S'the'
p1414
tp1415
a(S'the'
p1416
S'same'
p1417
S'level'
p1418
tp1419
a(g1
g2
S'\xd1\x80\xd0\xb8\xd1\x85\xd1\x82\xd0\xb0\xd1\x80\xd0\xb6\xd0\xbe\xd0\xb2\xd0\xb0'
p1420
tp1421
a(S'that'
p1422
g62
S'exaggerate'
p1423
tp1424
a(g332
g411
S'bulgaria'
p1425
tp1426
a(S'not'
p1427
S'miss'
p1428
S'european'
p1429
tp1430
a(S'was'
p1431
S'the'
p1432
S'culmination'
p1433
tp1434
a(S'easier'
p1435
S'than'
p1436
g1
tp1437
a(S'of'
p1438
S'the'
p1439
S'21st'
p1440
tp1441
a(S'president'
p1442
g150
g2
tp1443
a(S'can'
p1444
S'listen'
p1445
S'to'
p1446
tp1447
a(g1
S'austria'
p1448
S'and'
p1449
tp1450
a(g117
S'brilliant'
p1451
S'career'
p1452
tp1453
a(g733
g1
g871
tp1454
a(S'and'
p1455
g345
g346
tp1456
a(g117
S'certain'
p1457
S'way'
p1458
tp1459
a(S'\xd1\x80\xd0\xb8\xd1\x85\xd1\x82\xd0\xb0\xd1\x80\xd0\xb6'
p1460
S'('
p1461
S'53'
p1462
tp1463
a(S'of'
p1464
S'secrecy'
p1465
g150
tp1466
a(S'full'
p1467
S'of'
p1468
S'events'
p1469
tp1470
a(S'machines'
p1471
g1461
S'ibm'
p1472
tp1473
a(S'course'
p1474
g1
S'thanks'
p1475
tp1476
a(g1
S'slovenia'
p1477
g1
tp1478
a(S'united'
p1479
S'states'
p1480
g1
tp1481
a(g1
S'romania'
p1482
S'and'
p1483
tp1484
a(S'happy'
p1485
S'news'
p1486
g1
tp1487
a(S'often'
p1488
S'looks'
p1489
S'and'
p1490
tp1491
a(S'fearing'
p1492
S'that'
p1493
S'if'
p1494
tp1495
a(S'and'
p1496
S'private'
p1497
S'donations'
p1498
tp1499
a(S'sentenced'
p1500
S'to'
p1501
S'seven'
p1502
tp1503
a(S'cola'
p1504
S'and'
p1505
S'munich'
p1506
tp1507
a(S'media'
p1508
S'coverage'
p1509
S'was'
p1510
tp1511
a(S'in'
p1512
S'september'
p1513
g150
tp1514
a(S'willing'
p1515
S'to'
p1516
S'cooperate'
p1517
tp1518
a(S'blocked'
p1519
S'off'
p1520
g1
tp1521
a(S'\xd1\x85\xd1\x83\xd1\x81\xd1\x81\xd0\xbb\xd1\x8f\xd0\xb9\xd0\xbd'
p1522
g426
S'arco'
p1523
tp1524
a(S'financial'
p1525
S'sector'
p1526
g150
tp1527
a(S'200'
p1528
S'km'
p1529
S'/'
p1530
tp1531
a(S'switzerland'
p1532
S'and'
p1533
S'austria'
p1534
tp1535
a(g728
g729
g150
tp1536
a(S'to'
p1537
S'be'
p1538
S'used'
p1539
tp1540
a(S'brussels'
p1541
g1
S'is'
p1542
tp1543
a(S'short'
p1544
S'neck'
p1545
g1
tp1546
a(g62
S'meet'
p1547
S'someone'
p1548
tp1549
a(g1
S'she'
p1550
S'visited'
p1551
tp1552
a(S'was'
p1553
S'supposed'
p1554
S'to'
p1555
tp1556
a(S'switzerland'
p1557
g1
g1550
tp1558
a(S'in'
p1559
S'paris'
p1560
g1
tp1561
a(g153
g62
S'had'
p1562
tp1563
a(S'committee'
p1564
g1
g2
tp1565
a(S'months'
p1566
S'the'
p1567
S'bank'
p1568
tp1569
a(g1449
g1557
g1
tp1570
a(S'mercury'
p1571
g1
S'saturn'
p1572
tp1573
a(g150
S'you'
p1574
S'can'
p1575
tp1576
a(g426
S'prime'
p1577
S'securities'
p1578
tp1579
a(g811
g1
S'france'
p1580
tp1581
a(S'ton'
p1582
g1461
S'please'
p1583
tp1584
a(S'in'
p1585
S'salzburg'
p1586
g1
tp1587
a(g1477
g1
S'hungary'
p1588
tp1589
a(S'to'
p1590
g1528
g1529
tp1591
a(S'janney'
p1592
S'mongomery'
p1593
S'scott'
p1594
tp1595
a(g1461
S'45'
p1596
g332
tp1597
a(S'collector'
p1598
S'\xd1\x84\xd1\x80\xd0\xb0\xd0\xbd\xd1\x87\xd0\xb5\xd1\x81\xd0\xba\xd0\xb0'
p1599
S'von'
p1600
tp1601
a(S'someone'
p1602
S'else'
p1603
g1
tp1604
a(S'credit'
p1605
S'suisse'
p1606
g1
tp1607
a(S'fannie'
p1608
S'mae'
p1609
S'and'
p1610
tp1611
a(S'from'
p1612
S'ben'
p1613
g1
tp1614
a(g1516
g1517
g1
tp1615
a(S'apple'
p1616
S'and'
p1617
S'microsoft'
p1618
tp1619
a(S'\xd0\xba\xd0\xbe\xd0\xbd\xd0\xb2\xd0\xb5\xd1\x80\xd1\x82\xd0\xb8\xd1\x80\xd1\x83\xd0\xb5\xd0\xbc\xd1\x83\xd1\x8e'
p1620
S'bond'
p1621
S'with'
p1622
tp1623
a(S'faculty'
p1624
S'of'
p1625
S'law'
p1626
tp1627
a(S'the'
p1628
S'project'
p1629
g150
tp1630
a(g1103
S'extra'
p1631
S'work'
p1632
tp1633
a(S'our'
p1634
S'country'
p1635
g1
tp1636
a(S'founder'
p1637
S'and'
p1638
S'director'
p1639
tp1640
a(S'and'
p1641
S'efficient'
p1642
g1
tp1643
a(g1609
g1610
S'freddie'
p1644
tp1645
a(S'candidates'
p1646
g1
S'miroslav'
p1647
tp1648
a(S'jennifer'
p1649
S'lopez'
p1650
g1
tp1651
a(S'jakub'
p1652
S'\xd1\x87\xd0\xb0\xd0\xbb\xd1\x83\xd0\xbd'
p1653
g1
tp1654
a(S'the'
p1655
S'roof'
p1656
S'or'
p1657
tp1658
a(g1635
g1
S'so'
p1659
tp1660
a(g1461
g1472
g332
tp1661
a(S'knives'
p1662
S'and'
p1663
S'\xd0\xbc\xd1\x8f\xd1\x81\xd0\xbe\xd1\x80\xd0\xb5\xd0\xb7\xd0\xbe\xd0\xba'
p1664
tp1665
a(g2
S'if'
p1666
S'they'
p1667
tp1668
a(S'than'
p1669
S'100'
p1670
S'years'
p1671
tp1672
a(g1625
g1626
g150
tp1673
a(S'funds'
p1674
g1496
g1497
tp1675
a(S'that'
p1676
S'he'
p1677
S"'s"
p1678
tp1679
a(S'the'
p1680
S'eyes'
p1681
S'of'
p1682
tp1683
a(S'in'
p1684
g1680
g1681
tp1685
a(S'or'
p1686
g1
S'as'
p1687
tp1688
a(S'before'
p1689
S'the'
p1690
S'situation'
p1691
tp1692
a(S'bank'
p1693
S'of'
p1694
S'scotland'
p1695
tp1696
a(S'station'
p1697
S'in'
p1698
S'cologne'
p1699
tp1700
a(g1517
g1
g2
tp1701
a(S'slovakia'
p1702
g1
g1477
tp1703
a(S'say'
p1704
g1
S'britney'
p1705
tp1706
a(g1177
g1
g2
tp1707
a(S'on'
p1708
S'the'
p1709
S'eve'
p1710
tp1711
a(g117
S'slap'
p1712
g150
tp1713
a(g1
S'glass'
p1714
S'\xd1\x85\xd0\xbe\xd0\xbb\xd0\xbb\xd0\xb0\xd0\xbc\xd0\xb8'
p1715
tp1716
a(S'temporary'
p1717
S'exhibition'
p1718
S'hall'
p1719
tp1720
a(g1
S'what'
p1721
S'about'
p1722
tp1723
a(g250
S'15'
p1724
S'billion'
p1725
tp1726
a(g1
g1702
g1
tp1727
a(S'head'
p1728
S'of'
p1729
S'one'
p1730
tp1731
a(S'more'
p1732
g1515
g1516
tp1733
a(S'their'
p1734
S'new'
p1735
S'roles'
p1736
tp1737
a(S'we'
p1738
S'\xd0\xb7\xd1\x83\xd0\xb1\xd1\x80\xd0\xb8\xd0\xbc'
p1739
S'all'
p1740
tp1741
a(S'more'
p1742
S'than'
p1743
S'one'
p1744
tp1745
a(S'some'
p1746
S'turkish'
p1747
g1508
tp1748
a(S'education'
p1749
g411
S'he'
p1750
tp1751
a(S'czech'
p1752
S'national'
p1753
S'team'
p1754
tp1755
a(S'further'
p1756
S'signs'
p1757
S'of'
p1758
tp1759
a(S'it'
p1760
S'is'
p1761
S'clear'
p1762
tp1763
a(S'in'
p1764
S'vienna'
p1765
g1
tp1766
a(g1
S'who'
p1767
S'worked'
p1768
tp1769
a(S'hey'
p1770
g1
g1721
tp1771
a(S'promised'
p1772
S'to'
p1773
S'investigate'
p1774
tp1775
a(S'he'
p1776
S'was'
p1777
S'known'
p1778
tp1779
a(S'from'
p1780
S'poland'
p1781
S'and'
p1782
tp1783
a(S'baths'
p1784
S'on'
p1785
g1655
tp1786
a(g1547
g1548
g1780
tp1787
a(S'and'
p1788
S'germany'
p1789
g150
tp1790
a(S'leather'
p1791
S'sofas'
p1792
g150
tp1793
a(S'the'
p1794
S'importance'
p1795
S'of'
p1796
tp1797
a(g1
g1588
g1
tp1798
a(S'fiber'
p1799
S'optics'
p1800
S'and'
p1801
tp1802
a(S'harald'
p1803
S'schuman'
p1804
g1
tp1805
a(g2
S'said'
p1806
g1652
tp1807
a(S'technical'
p1808
S'and'
p1809
S'spatial'
p1810
tp1811
a(S'deutsche'
p1812
S'bank'
p1813
g1331
tp1814
a(S'moving'
p1815
g542
g381
tp1816
a(S'international'
p1817
S'business'
p1818
g1471
tp1819
a(S'coca'
p1820
g426
g1504
tp1821
a(S'three'
p1822
S'experts'
p1823
g1019
tp1824
a(g1754
S'will'
p1825
g1427
tp1826
a(g1818
g1471
g1461
tp1827
a(S'after'
p1828
S'the'
p1829
S'revolution'
p1830
tp1831
a(S'according'
p1832
S'to'
p1833
S'one'
p1834
tp1835
a(g1028
g1
S'and'
p1836
tp1837
a(S'operating'
p1838
S'system'
p1839
g150
tp1840
a(S'bank'
p1841
S'of'
p1842
S'america'
p1843
tp1844
a(S'prague'
p1845
S'in'
p1846
S'the'
p1847
tp1848
a(S'spears'
p1849
g1
S'christina'
p1850
tp1851
a(g38
g39
S'trustees'
p1852
tp1853
a(g1
S'adding'
p1854
S'that'
p1855
tp1856
a(g1709
g1710
S'of'
p1857
tp1858
a(S'and'
p1859
S'their'
p1860
S'inability'
p1861
tp1862
a(S'13'
p1863
S'countries'
p1864
g150
tp1865
a(S'were'
p1866
S'not'
p1867
S'politically'
p1868
tp1869
a(g1461
S'essentially'
p1870
g117
tp1871
a(S'vice'
p1872
g426
S'presidents'
p1873
tp1874
a(S'bank'
p1875
S'lehman'
p1876
S'brothers'
p1877
tp1878
a(S'your'
p1879
S'speedometer'
p1880
S'shows'
p1881
tp1882
a(S'and'
p1883
S'turkish'
p1884
S'politicians'
p1885
tp1886
a(g1555
g1
S'among'
p1887
tp1888
a(S'is'
p1889
S'the'
p1890
S'name'
p1891
tp1892
a(S'to'
p1893
S'the'
p1894
S'one'
p1895
tp1896
a(S'swiss'
p1897
S'francs'
p1898
g1461
tp1899
a(S'public'
p1900
g1674
g1496
tp1901
a(S'two'
p1902
S'weeks'
p1903
S'ago'
p1904
tp1905
a(S'company'
p1906
S'berkshire'
p1907
S'hathaway'
p1908
tp1909
a(S'in'
p1910
S'the'
p1911
S'1960s'
p1912
tp1913
a(S'wave'
p1914
S'of'
p1915
S'short'
p1916
tp1917
a(S'our'
p1918
S'own'
p1919
S'style'
p1920
tp1921
a(S'from'
p1922
S'150'
p1923
g1590
tp1924
a(g1
S'lost'
p1925
S'and'
p1926
tp1927
a(S'presidential'
p1928
g1646
g1
tp1929
a(g150
S'travelers'
p1930
S'can'
p1931
tp1932
a(S'for'
p1933
S'speed'
p1934
S'in'
p1935
tp1936
a(S'with'
p1937
g117
g1451
tp1938
a(g332
g411
S'or'
p1939
tp1940
a(S'but'
p1941
S'he'
p1942
S'also'
p1943
tp1944
a(S'technical'
p1945
S'malfunctions'
p1946
g150
tp1947
a(S'boyish'
p1948
S'figure'
p1949
S'without'
p1950
tp1951
a(S'ups'
p1952
g1
S'downs'
p1953
tp1954
a(S'baths'
p1955
g810
g811
tp1956
a(S'winner'
p1957
S'of'
p1958
S'the'
p1959
tp1960
a(g1
g1492
g1493
tp1961
a(S'legal'
p1962
g1749
g411
tp1963
a(S'and'
p1964
S'preferences'
p1965
g150
tp1966
a(g1747
g1508
g1509
tp1967
a(g62
g1562
S'something'
p1968
tp1969
a(S'old'
p1970
S'fool'
p1971
g1
tp1972
a(S'or'
p1973
S'six'
p1974
S'years'
p1975
tp1976
a(g1593
g1594
g150
tp1977
a(S'how'
p1978
g1537
g1538
tp1979
a(g1712
g150
g2
tp1980
a(S'the'
p1981
S'previous'
p1982
S'series'
p1983
tp1984
a(g1501
g1502
S'years'
p1985
tp1986
a(S'collar'
p1987
g1
S'and'
p1988
tp1989
a(g1588
g1
g1482
tp1990
a(S'meeting'
p1991
g1
g2
tp1992
a(g1102
g1103
g1631
tp1993
a(S'and'
p1994
S'natanz'
p1995
g1
tp1996
a(g1942
g1943
S'studied'
p1997
tp1998
a(S'coachman'
p1999
S'and'
p2000
S'\xd1\x80\xd0\xb0\xd0\xb9\xd1\x85\xd0\xbb\xd0\xb0'
p2001
tp2002
a(S'want'
p2003
S'to'
p2004
S'avoid'
p2005
tp2006
a(g1800
g1801
S'status'
p2007
tp2008
a(S'better'
p2009
S'than'
p2010
S'expected'
p2011
tp2012
a(S'and'
p2013
g62
S'want'
p2014
tp2015
a(S'samuel'
p2016
S'j.'
p2017
S'palmisano'
p2018
tp2019
a(S'of'
p2020
g1628
g1629
tp2021
a(g1461
g1462
g332
tp2022
a(g1448
g1449
g1557
tp2023
a(S'in'
p2024
S'the'
p2025
S'back'
p2026
tp2027
a(g1744
g426
S'third'
p2028
tp2029
a(g1638
g1639
S'of'
p2030
tp2031
a(S'glass'
p2032
S'in'
p2033
S'the'
p2034
tp2035
a(S'investment'
p2036
g1875
g1876
tp2037
a(S'turks'
p2038
S'in'
p2039
S'germany'
p2040
tp2041
a(g382
g383
g1
tp2042
a(S'need'
p2043
g1933
g1934
tp2044
a(S'favorite'
p2045
g1
g1925
tp2046
a(S'behind'
p2047
S'the'
p2048
S'scenes'
p2049
tp2050
a(g1825
g1427
g1428
tp2051
a(S'their'
p2052
S'parents'
p2053
g150
tp2054
a(S'between'
p2055
S'2000'
p2056
S'and'
p2057
tp2058
a(g426
S'term'
p2059
S'thinking'
p2060
tp2061
a(S'election'
p2062
S'rules'
p2063
g1
tp2064
a(g1919
g1920
S'and'
p2065
tp2066
a(S'\xd0\xb4\xd0\xb0\xd0\xbb\xd0\xb8\xd0\xb1\xd0\xbe\xd1\x80\xd0\xb0'
p2067
g1999
g2000
tp2068
a(S'statistical'
p2069
S'office'
p2070
S'eurostat'
p2071
tp2072
a(S'in'
p2073
S'isfahan'
p2074
g1994
tp2075
a(g1743
g1744
g426
tp2076
a(g2056
g2057
S'2006'
p2077
tp2078
a(g1753
g1754
g1825
tp2079
a(S'too'
p2080
S'provocatively'
p2081
g150
tp2082
a(g1331
S'deutsche'
p2083
S'bank'
p2084
tp2085
a(g1599
g1600
S'habsburg'
p2086
tp2087
a(S'five'
p2088
g1973
g1974
tp2089
a(S'ubs'
p2090
S'and'
p2091
g1605
tp2092
a(S'simple'
p2093
S'forms'
p2094
g1
tp2095
a(S'germany'
p2096
g1
g1448
tp2097
a(S'in'
p2098
S'1932'
p2099
g150
tp2100
a(g1497
g1498
S'and'
p2101
tp2102
a(S'pools'
p2103
S'in'
p2104
g1532
tp2105
a(S'republic'
p2106
g1
g1702
tp2107
a(S'in'
p2108
S'an'
p2109
S'interview'
p2110
tp2111
a(g1873
g2067
g1999
tp2112
a(S'education'
p2113
g1
S'youth'
p2114
tp2115
a(g1
g1704
g1
tp2116
a(S'candidate'
p2117
g1
S'miroslav'
p2118
tp2119
a(g1505
g1506
S're'
p2120
tp2121
a(g1451
g1452
S'\xd1\x84\xd0\xb8\xd0\xb3\xd1\x83\xd1\x80\xd0\xb8\xd1\x81\xd1\x82\xd0\xba\xd0\xb8'
p2122
tp2123
a(g2025
g2026
S'row'
p2124
tp2125
a(S'other'
p2126
S'candidates'
p2127
g150
tp2128
a(g363
g150
g999
tp2129
a(S'\xd0\xb1\xd0\xb5\xd1\x80\xd0\xb1\xd1\x80\xd0\xbe\xd0\xbc'
p2130
g1
S'president'
p2131
tp2132
a(S'\xd1\x81\xd0\xb5\xd0\xba\xd1\x83\xd0\xbd\xd0\xb4\xd0\xbe\xd0\xbc\xd0\xb5\xd1\x80\xd0\xbe\xd0\xbc'
p2133
g332
g411
tp2134
a(g1548
g1780
g1781
tp2135
a(S'the'
p2136
g1752
g1753
tp2137
a(S'german'
p2138
S'democratic'
p2139
S'republic'
p2140
tp2141
a(S'it'
p2142
g1211
g1212
tp2143
a(g1533
g1534
g1
tp2144
a(S'youth'
p2145
g1
g1767
tp2146
a(g1472
g332
S'was'
p2147
tp2148
a(g426
g1598
g1599
tp2149
a(g1610
g1644
S'mac'
p2150
tp2151
a(S'of'
p2152
S'the'
p2153
S'federal'
p2154
tp2155
a(S'the'
p2156
S'incredible'
p2157
S'water'
p2158
tp2159
a(S'anti'
p2160
g426
S'discriminatory'
p2161
tp2162
a(g1534
g1
S'on'
p2163
tp2164
a(g1482
g1483
S'poland'
p2165
tp2166
a(g1860
g1861
S'to'
p2167
tp2168
a(g1806
g1652
g1653
tp2169
a(S'six'
p2170
S'billion'
p2171
S'swiss'
p2172
tp2173
a(S'68'
p2174
S'billion'
p2175
g1897
tp2176
a(g1705
g1849
g1
tp2177
a(S'and'
p2178
S'why'
p2179
g1
tp2180
a(g2154
S'bank'
p2181
g1
tp2182
a(S'german'
p2183
g1883
g1884
tp2184
a(g2
S'said'
p2185
S'economist'
p2186
tp2187
a(S'when'
p2188
g650
g651
tp2189
a(S'restoration'
p2190
S'and'
p2191
S'expansion'
p2192
tp2193
a(S'\xd0\xb1\xd0\xbe\xd0\xb4\xd0\xb5'
p2194
g1485
g1486
tp2195
a(g1432
g1433
S'of'
p2196
tp2197
a(S'new'
p2198
S'direction'
p2199
g411
tp2200
a(S'when'
p2201
g62
g1547
tp2202
a(S'who'
p2203
g1444
g1445
tp2204
a(g1698
g1699
g150
tp2205
a(g1785
g1655
g1656
tp2206
a(S'around'
p2207
S'you'
p2208
g150
tp2209
a(S'museum'
p2210
S'in'
p2211
S'vienna'
p2212
tp2213
a(g2028
S'of'
p2214
S'children'
p2215
tp2216
a(g426
g1523
g1
tp2217
a(S'herman'
p2218
S'van'
p2219
S'rompuy'
p2220
tp2221
a(S'tastes'
p2222
g1964
g1965
tp2223
a(g2139
g2140
S'of'
p2224
tp2225
a(S'that'
p2226
S'one'
p2227
S'of'
p2228
tp2229
a(S'mutual'
p2230
S'delicacies'
p2231
g150
tp2232
a(g1526
g150
g2
tp2233
a(S'said'
p2234
g1
S'that'
p2235
tp2236
a(S'italian'
p2237
S'and'
p2238
S'greek'
p2239
tp2240
a(g721
S'budapest'
p2241
g150
tp2242
a(g1923
g1590
g1528
tp2243
a(S'open'
p2244
S'arms'
p2245
g150
tp2246
a(S'whose'
p2247
S'body'
p2248
S'is'
p2249
tp2250
a(g2153
g2154
g2181
tp2251
a(S'happy'
p2252
S'event'
p2253
g150
tp2254
a(S'said'
p2255
g1
g1492
tp2256
a(g1781
g1782
S'hungary'
p2257
tp2258
a(g2091
g1605
g1606
tp2259
a(S'veil'
p2260
g1464
g1465
tp2261
a(S'fact'
p2262
S'that'
p2263
S'his'
p2264
tp2265
a(g1577
g1578
g150
tp2266
a(g1
g1705
g1849
tp2267
a(S'ivan'
p2268
S'\xd0\xb3\xd0\xb0\xd1\x88\xd0\xb5\xd0\xba\xd0\xb0'
p2269
g150
tp2270
a(S'window'
p2271
g2032
g2033
tp2272
a(g2157
g2158
S'europe'
p2273
tp2274
a(S'sotheby'
p2275
S"'s"
p2276
g1
tp2277
a(S'example'
p2278
S'of'
p2279
S'how'
p2280
tp2281
a(g1554
g1555
g1
tp2282
a(S'challenge'
p2283
S'mode'
p2284
g411
tp2285
a(S'be'
p2286
g1732
g1515
tp2287
a(g1506
g2120
g1461
tp2288
a(g426
g1504
g1505
tp2289
a(S'sub'
p2290
g426
g1577
tp2291
a(S'velvet'
p2292
S'revolution'
p2293
g411
tp2294
a(g1436
g1
g1704
tp2295
a(g1529
g1530
S'h'
p2296
tp2297
a(S'lover'
p2298
S'\xd0\xb8\xd0\xb2\xd0\xb5\xd1\x82\xd1\x8b'
p2299
S'\xd0\xb1\xd0\xb0\xd1\x80\xd1\x82\xd0\xbe\xd1\x88\xd0\xbe\xd0\xb2\xd0\xbe\xd0\xb9'
p2300
tp2301
a(g2094
g1
g1714
tp2302
a(S'my'
p2303
g2045
g1
tp2304
a(g1778
g1
S'of'
p2305
tp2306
a(S'v\xc5\xa1eobecn\xc3\xa1'
p2307
S'zdravotn\xc3\xad'
p2308
S'poji\xc5\xa1\xc5\xa5ovna'
p2309
tp2310
a(g426
g427
S'bilateral'
p2311
tp2312
a(g1
S'their'
p2313
S'style'
p2314
tp2315
a(S'blame'
p2316
S'several'
p2317
S'factors'
p2318
tp2319
a(g1439
g1440
S'century'
p2320
tp2321
a(g2241
g150
g1930
tp2322
a(S'and'
p2323
S'lucrative'
p2324
S'career'
p2325
tp2326
a(S'royal'
p2327
g1693
g1694
tp2328
a(g2104
g1532
g1533
tp2329
a(g1925
g1926
S'found'
p2330
tp2331
a(S'investors'
p2332
S'and'
p2333
S'regulators'
p2334
tp2335
a(S'in'
p2336
S'november'
p2337
S'1992'
p2338
tp2339
a(S'rising'
p2340
S'food'
p2341
S'prices'
p2342
tp2343
a(g2191
g2192
S'of'
p2344
tp2345
a(g2074
g1994
g1995
tp2346
a(S'long'
p2347
g426
g2059
tp2348
a(g1777
g1778
g1
tp2349
a(S'in'
p2350
S'luxembourg'
p2351
g1
tp2352
a(S'tax'
p2353
S'evasion'
p2354
g150
tp2355
a(S'long'
p2356
S'list'
p2357
S'of'
p2358
tp2359
a(S'czech'
p2360
S'olympic'
p2361
S'committee'
p2362
tp2363
a(S'announced'
p2364
g1512
g1513
tp2365
a(g411
S'but'
p2366
S'the'
p2367
tp2368
a(g152
g153
g62
tp2369
a(g2033
g2034
S'living'
p2370
tp2371
a(S'from'
p2372
S'obesity'
p2373
g1
tp2374
a(g1433
g2196
S'our'
p2375
tp2376
a(S'people'
p2377
g1
S'but'
p2378
tp2379
a(S'object'
p2380
g1
S'how'
p2381
tp2382
a(S'significant'
p2383
S'event'
p2384
S'in'
p2385
tp2386
a(g426
S'tech'
p2387
S'companies'
p2388
tp2389
a(S'pile'
p2390
S'of'
p2391
S'scrap'
p2392
tp2393
a(g1
g1850
S'\xd0\xb0\xd0\xb3\xd0\xb8\xd0\xbb\xd0\xb5\xd1\x80\xd1\x83'
p2394
tp2395
a(S'many'
p2396
g2038
g2039
tp2397
a(S'0.1'
p2398
S'%'
p2399
g332
tp2400
a(g426
g1873
g2067
tp2401
a(S'romania'
p2402
g1461
S'both'
p2403
tp2404
a(g1911
g1912
g1
tp2405
a(S'that'
p2406
g2136
g1752
tp2407
a(S'more'
p2408
g1669
g1670
tp2409
a(g1813
g1331
g2083
tp2410
a(S'want'
p2411
S'to'
p2412
S'say'
p2413
tp2414
a(g426
g2028
g2214
tp2415
a(g2
g1770
g1
tp2416
a(S'and'
p2417
S'croatia'
p2418
g150
tp2419
a(g1995
g1
g447
tp2420
a(S'access'
p2421
S'to'
p2422
g117
tp2423
a(g497
g660
g411
tp2424
a(S'the'
p2425
S'form'
p2426
S'of'
p2427
tp2428
a(g1
g1572
g1
tp2429
a(g1425
g411
g2402
tp2430
a(S'were'
p2431
S'going'
p2432
g2009
tp2433
a(S'ubs'
p2434
S'toxic'
p2435
S'securities'
p2436
tp2437
a(S'foundations'
p2438
S'were'
p2439
S'laid'
p2440
tp2441
a(g2367
S'overall'
p2442
S'impression'
p2443
tp2444
a(S'after'
p2445
S'her'
p2446
S'husband'
p2447
tp2448
a(S'will'
p2449
S'be'
p2450
S'known'
p2451
tp2452
a(S'definitions'
p2453
S'and'
p2454
S'rules'
p2455
tp2456
a(g1
g1887
S'other'
p2457
tp2458
a(S'hundred'
p2459
S'years'
p2460
S'ago'
p2461
tp2462
a(S'freely'
p2463
S'convertible'
p2464
S'czech'
p2465
tp2466
a(S'as'
p2467
S'ibm'
p2468
g1
tp2469
a(S'decided'
p2470
S'on'
p2471
g1978
tp2472
a(S'which'
p2473
S'sticks'
p2474
S'to'
p2475
tp2476
a(S'celebrating'
p2477
g322
g323
tp2478
a(S'lose'
p2479
S'speed'
p2480
g150
tp2481
a(S'of'
p2482
S'technology'
p2483
g1
tp2484
a(S'few'
p2485
g1566
g1567
tp2486
a(S'as'
p2487
S'wheat'
p2488
S'and'
p2489
tp2490
a(S'the'
p2491
S'company'
p2492
S"'s"
p2493
tp2494
a(S'people'
p2495
g150
g2
tp2496
a(S'betrayed'
p2497
S'them'
p2498
g150
tp2499
a(S'take'
p2500
g2088
g1973
tp2501
a(g2300
g1461
g1596
tp2502
a(g2
S'football'
p2503
S'will'
p2504
tp2505
a(S'many'
p2506
S'millions'
p2507
S'of'
p2508
tp2509
a(g411
S'vaclav'
p2510
S'\xd0\xb3\xd0\xb0\xd0\xbc\xd0\xbf\xd0\xbb'
p2511
tp2512
a(S'recently'
p2513
S'recovered'
p2514
S'per'
p2515
tp2516
a(S'in'
p2517
g2425
g2426
tp2518
a(S'league'
p2519
g1
g626
tp2520
a(S'in'
p2521
S'central'
p2522
S'europe'
p2523
tp2524
a(S'businessman'
p2525
S'charles'
p2526
S'\xd1\x80\xd0\xb0\xd0\xbd\xd0\xbb\xd0\xb5\xd1\x82'
p2527
tp2528
a(S'serbia'
p2529
g2417
g2418
tp2530
a(S'financial'
p2531
S'crisis'
p2532
g150
tp2533
a(S'clear'
p2534
g150
g1832
tp2535
a(S'competitors'
p2536
g450
g451
tp2537
a(S'such'
p2538
g2487
g2488
tp2539
a(S'results'
p2540
S'will'
p2541
S'be'
p2542
tp2543
a(S'known'
p2544
S'as'
p2545
S'an'
p2546
tp2547
a(S'said'
p2548
S'that'
p2549
S'the'
p2550
tp2551
a(g1452
g2122
S'in'
p2552
tp2553
a(S'entering'
p2554
g484
g485
tp2555
a(g2361
g2362
g1
tp2556
a(g150
g2
g1666
tp2557
a(g1891
S'of'
p2558
S'one'
p2559
tp2560
a(g2
S'unfortunately'
p2561
g1
tp2562
a(g1650
g1
S'i.e.'
p2563
tp2564
a(g1
g2473
g2474
tp2565
a(S'the'
p2566
S'great'
p2567
S'depression'
p2568
tp2569
a(g1884
g1885
g2477
tp2570
a(S'investment'
p2571
S'banking'
p2572
g1
tp2573
a(g2366
g2367
g2442
tp2574
a(S'\xd0\xbf\xd0\xb5\xd0\xbb\xd1\x8c\xd1\x82\xd0\xbe\xd0\xb9'
p2575
S'and'
p2576
S'\xd0\xb9\xd0\xb8\xd0\xbd\xd0\xb4\xd1\x80\xd0\xb6\xd0\xb8\xd1\x85\xd0\xbe\xd0\xbc'
p2577
tp2578
a(S'of'
p2579
g760
g761
tp2580
a(S'swiss'
p2581
S'garden'
p2582
g150
tp2583
a(g1617
g1618
g150
tp2584
a(S'diverse'
p2585
S'and'
p2586
S'interesting'
p2587
tp2588
a(g411
g2402
g1461
tp2589
a(S'in'
p2590
S'2000'
p2591
g150
tp2592
a(S'one'
p2593
S'of'
p2594
S'his'
p2595
tp2596
a(g2545
g2546
S'influential'
p2597
tp2598
a(S'the'
p2599
S'budget'
p2600
S'lean'
p2601
tp2602
a(S'that'
p2603
S'it'
p2604
S'is'
p2605
tp2606
a(S'to'
p2607
S'think'
p2608
S'about'
p2609
tp2610
a(S'socialist'
p2611
S'countries'
p2612
g150
tp2613
a(g2600
g2601
g1641
tp2614
a(g2514
g2515
g1582
tp2615
a(S'first'
p2616
S'direct'
p2617
S'\xd1\x87\xd0\xb0\xd1\x80\xd1\x82\xd0\xb5\xd1\x80\xd0\xbd\xd0\xbe\xd0\xbc\xd1\x83'
p2618
tp2619
a(S"'"
p2620
g411
S'but'
p2621
tp2622
a(S'but'
p2623
S'if'
p2624
S'you'
p2625
tp2626
a(g276
g277
g1
tp2627
a(g1
g1815
g542
tp2628
a(g2034
g2370
S'room'
p2629
tp2630
a(S'harvard'
p2631
S'business'
p2632
S'school'
p2633
tp2634
a(S'candidates'
p2635
g1859
g1860
tp2636
a(g1
g2623
g2624
tp2637
a(g1907
g1908
S'owns'
p2638
tp2639
a(g2546
g2597
S'lobbyist'
p2640
tp2641
a(g117
S'real'
p2642
S'pleasure'
p2643
tp2644
a(S'paid'
p2645
g2170
g2171
tp2646
a(g2576
g2577
S'\xd1\x80\xd0\xb0\xd0\xb9\xd1\x85\xd0\xbb\xd0\xbe\xd0\xbc'
p2647
tp2648
a(S'he'
p2649
S'needs'
p2650
S'to'
p2651
tp2652
a(S'the'
p2653
S'location'
p2654
S'of'
p2655
tp2656
a(S'forgotten'
p2657
S'fears'
p2658
g150
tp2659
a(S'mean'
p2660
S'hard'
p2661
S'work'
p2662
tp2663
a(g332
g2147
S'founded'
p2664
tp2665
a(g1721
g1722
g830
tp2666
a(g62
S'also'
p2667
S'know'
p2668
tp2669
a(S'flight'
p2670
g1
S'which'
p2671
tp2672
a(S'on'
p2673
g2340
g2341
tp2674
a(g1461
S'based'
p2675
S'on'
p2676
tp2677
a(S'things'
p2678
g2431
g2432
tp2679
a(g117
S'significant'
p2680
S'shift'
p2681
tp2682
a(g2617
g2618
S'voyage'
p2683
tp2684
a(S'before'
p2685
g2554
g484
tp2686
a(S'hosting'
p2687
g421
g422
tp2688
a(S'over'
p2689
S'the'
p2690
S'past'
p2691
tp2692
a(g2
g62
S'will'
p2693
tp2694
a(S'analyst'
p2695
S'hans'
p2696
S'geiger'
p2697
tp2698
a(S'university'
p2699
g2482
g2483
tp2700
a(g2432
g2009
g2010
tp2701
a(S'not'
p2702
S'just'
p2703
S'the'
p2704
tp2705
a(S'world'
p2706
S'in'
p2707
S'1973'
p2708
tp2709
a(g1520
g1
S'not'
p2710
tp2711
a(g1864
g150
S'in'
p2712
tp2713
a(S'time'
p2714
g2607
g2608
tp2715
a(g2299
g2300
g1461
tp2716
a(S'corporate'
p2717
S'culture'
p2718
S'and'
p2719
tp2720
a(g2601
g1641
g1642
tp2721
a(S'\xd0\xba\xd1\x80\xd0\xb8\xd1\x88\xd0\xb0\xd0\xbd\xd0\xb8\xd1\x82\xd1\x86\xd0\xb0'
p2722
g426
g1598
tp2723
a(S'ibm'
p2724
S'worth'
p2725
S'more'
p2726
tp2727
a(S'ladies'
p2728
g1
S'you'
p2729
tp2730
a(g2507
g2508
S'pounds'
p2731
tp2732
a(g2147
g2664
S'in'
p2733
tp2734
a(S'red'
p2735
g426
S'brown'
p2736
tp2737
a(g1331
g2
g1770
tp2738
a(S'rome'
p2739
S'and'
p2740
S'athens'
p2741
tp2742
a(S'and'
p2743
S'the'
p2744
S'pavilion'
p2745
tp2746
a(S'is'
p2747
S'impossible'
p2748
g150
tp2749
a(g150
g2712
S'addition'
p2750
tp2751
a(g2515
g1582
g1461
tp2752
a(g150
g2
S'instead'
p2753
tp2754
a(g1
g1803
g1804
tp2755
a(g2744
g2745
S'was'
p2756
tp2757
a(S'of'
p2758
S'the'
p2759
S'fact'
p2760
tp2761
a(g2248
g2249
S'not'
p2762
tp2763
a(g828
S'part'
p2764
S'of'
p2765
tp2766
a(S'the'
p2767
S'swiss'
p2768
S'confederation'
p2769
tp2770
a(g411
g1425
g411
tp2771
a(S'for'
p2772
S'the'
p2773
S'museum'
p2774
tp2775
a(S'julius'
p2776
S'baer'
p2777
g150
tp2778
a(S'rhetoric'
p2779
g150
g2
tp2780
a(S'that'
p2781
S'he'
p2782
S'had'
p2783
tp2784
a(S'the'
p2785
S'football'
p2786
S'association'
p2787
tp2788
a(g1606
g1
S'at'
p2789
tp2790
a(g2671
g1553
g1554
tp2791
a(S'whose'
p2792
S'help'
p2793
S'he'
p2794
tp2795
a(S'it'
p2796
g2747
g2748
tp2797
a(S'\xd0\xbf\xd0\xb0\xd1\x86\xd0\xbb\xd0\xb8\xd0\xba\xd0\xb0'
p2798
S'with'
p2799
S'\xd0\xbf\xd0\xb5\xd0\xbb\xd1\x8c\xd1\x82\xd0\xbe\xd0\xb9'
p2800
tp2801
a(S'introductory'
p2802
S'classes'
p2803
g150
tp2804
a(S'opposite'
p2805
S'direction'
p2806
g150
tp2807
a(g2
g2753
S'of'
p2808
tp2809
a(S'european'
p2810
S'government'
p2811
S'bonds'
p2812
tp2813
a(S'confirmed'
p2814
S'the'
p2815
S'trend'
p2816
tp2817
a(S'the'
p2818
S'home'
p2819
g1026
tp2820
a(S'cnbc'
p2821
g1
g284
tp2822
a(S'how'
p2823
S'to'
p2824
S'dress'
p2825
tp2826
a(S'support'
p2827
S'from'
p2828
S'the'
p2829
tp2830
a(S'relations'
p2831
S'with'
p2832
S'both'
p2833
tp2834
a(S'\xd0\xb7\xd0\xbe\xd0\xbb\xd0\xb8\xd0\xbd\xd0\xb3\xd0\xb5\xd0\xbd\xd0\xb5'
p2835
S'in'
p2836
S'may'
p2837
tp2838
a(g2059
g2060
S'means'
p2839
tp2840
a(S'corruption'
p2841
g411
S'\xd0\xbf\xd0\xb5\xd0\xbb\xd1\x8c\xd1\x82\xd0\xb5'
p2842
tp2843
a(S'both'
p2844
S'countries'
p2845
S'also'
p2846
tp2847
a(S'title'
p2848
S'of'
p2849
S'his'
p2850
tp2851
a(S'the'
p2852
S'first'
p2853
S'article'
p2854
tp2855
a(S'22'
p2856
g426
S'day'
p2857
tp2858
a(S'surrounded'
p2859
S'by'
p2860
S'people'
p2861
tp2862
a(S'photographer'
p2863
g1
g62
tp2864
a(S'agreed'
p2865
S'to'
p2866
S'pay'
p2867
tp2868
a(S'be'
p2869
S'elected'
p2870
g1
tp2871
a(S'fa\xc4\x8dr'
p2872
S'and'
p2873
g2360
tp2874
a(S'\xd0\xb0\xd0\xbb\xd0\xb5\xd0\xbd\xd0\xba\xd0\xbe\xd0\xb9'
p2875
g1
S'director'
p2876
tp2877
a(g1739
g1740
g2453
tp2878
a(S'which'
p2879
S'continued'
p2880
S'to'
p2881
tp2882
a(g1885
g2477
g322
tp2883
a(S'in'
p2884
S'the'
p2885
S'jacuzzi'
p2886
tp2887
a(S'home'
p2888
S'player'
p2889
S'patrick'
p2890
tp2891
a(S'however'
p2892
g1
S'the'
p2893
tp2894
a(S'unexpected'
p2895
g2323
g2324
tp2896
a(S'mayor'
p2897
S'of'
p2898
S'prague'
p2899
tp2900
a(S'9'
p2901
S'to'
p2902
S'13'
p2903
tp2904
a(S'for'
p2905
g2396
g2038
tp2906
a(S'first'
p2907
g1385
g1
tp2908
a(S'regular'
p2909
S'flights'
p2910
g1
tp2911
a(S'you'
p2912
S'to'
p2913
S'see'
p2914
tp2915
a(S'after'
p2916
g2818
g2819
tp2917
a(S'race'
p2918
S'across'
p2919
S'america'
p2920
tp2921
a(S'main'
p2922
S'story'
p2923
S'mode'
p2924
tp2925
a(S'was'
p2926
S'his'
p2927
S'message'
p2928
tp2929
a(g1530
g2296
g1461
tp2930
a(g62
S'am'
p2931
S'happy'
p2932
tp2933
a(S'more'
p2934
S'than'
p2935
S'40'
p2936
tp2937
a(S'channel'
p2938
g2821
g1
tp2939
a(S'second'
p2940
S'building'
p2941
g2722
tp2942
a(S'keep'
p2943
S'in'
p2944
S'mind'
p2945
tp2946
a(S'used'
p2947
S'to'
p2948
g1734
tp2949
a(S'the'
p2950
S'founder'
p2951
S'of'
p2952
tp2953
a(S'for'
p2954
S'many'
p2955
S'years'
p2956
tp2957
a(g2873
g2360
g2361
tp2958
a(S'criticism'
p2959
g150
S'he'
p2960
tp2961
a(g426
g2857
S'anniversary'
p2962
tp2963
a(S'his'
p2964
S'place'
p2965
S'in'
p2966
tp2967
a(S'of'
p2968
S'three'
p2969
S'open'
p2970
tp2971
a(S'less'
p2972
S'telling'
p2973
S'as'
p2974
tp2975
a(g1861
g2167
S'write'
p2976
tp2977
a(S'in'
p2978
S'the'
p2979
S'presidential'
p2980
tp2981
a(S'with'
p2982
g2244
g2245
tp2983
a(S'five'
p2984
S'defenders'
p2985
g150
tp2986
a(g1113
g1114
S'expect'
p2987
tp2988
a(S'you'
p2989
S'criticize'
p2990
S'your'
p2991
tp2992
a(S'soviet'
p2993
S'union'
p2994
g1461
tp2995
a(S'experience'
p2996
S'in'
p2997
S'football'
p2998
tp2999
a(S'known'
p3000
S'example'
p3001
S'of'
p3002
tp3003
a(g1238
g1239
S'the'
p3004
tp3005
a(S'\xd1\x80\xd1\x8e\xd0\xb4\xd0\xb8\xd0\xb3\xd0\xb5\xd1\x80'
p3006
S'\xd0\xb3\xd1\x80\xd1\x83\xd0\xb1\xd0\xb5'
p3007
g1
tp3008
a(S'different'
p3009
S'players'
p3010
g150
tp3011
a(g2140
g2224
S'crimea'
p3012
tp3013
a(S'of'
p3014
S'the'
p3015
g1928
tp3016
a(S'special'
p3017
g1
S'but'
p3018
tp3019
a(S'that'
p3020
S'if'
p3021
S'you'
p3022
tp3023
a(g2948
g1734
g1735
tp3024
a(S'guggenheim'
p3025
S'museum'
p3026
S'and'
p3027
tp3028
a(g2919
g2920
g150
tp3029
a(g1631
g1632
g150
tp3030
a(g2572
g1
S'where'
p3031
tp3032
a(S'so'
p3033
g3020
g3021
tp3034
a(S'almost'
p3035
S'every'
p3036
S'week'
p3037
tp3038
a(S'perfectly'
p3039
S'symmetric'
p3040
g150
tp3041
a(S'hundreds'
p3042
S'of'
p3043
S'years'
p3044
tp3045
a(S'sharia'
p3046
S'law'
p3047
g1
tp3048
a(g2224
g3012
g411
tp3049
a(g2990
g2991
S'partner'
p3050
tp3051
a(g117
S'follower'
p3052
S'of'
p3053
tp3054
a(S'support'
p3055
S'for'
p3056
S'the'
p3057
tp3058
a(S'subsequent'
p3059
S'financial'
p3060
S'crisis'
p3061
tp3062
a(S'central'
p3063
S'europe'
p3064
g2
tp3065
a(S'and'
p3066
S'swimming'
p3067
S'pools'
p3068
tp3069
a(S'vienna'
p3070
g2699
g2482
tp3071
a(S'will'
p3072
S'be'
p3073
g1
tp3074
a(S'13'
p3075
S'schools'
p3076
g332
tp3077
a(g2941
g2722
g426
tp3078
a(g720
g721
g2241
tp3079
a(S'to'
p3080
S'invest'
p3081
S'in'
p3082
tp3083
a(S'that'
p3084
S'if'
p3085
S'another'
p3086
tp3087
a(g3015
g1928
g1646
tp3088
a(S'allows'
p3089
g2912
g2913
tp3090
a(g2351
g1
g2529
tp3091
a(S'preference'
p3092
g411
S'which'
p3093
tp3094
a(g2845
g2846
S'have'
p3095
tp3096
a(S'statement'
p3097
S'about'
p3098
S'the'
p3099
tp3100
a(S'interest'
p3101
g634
g635
tp3102
a(g2594
g2595
S'priorities'
p3103
tp3104
a(S'two'
p3105
S'days'
p3106
S'before'
p3107
tp3108
a(S'ukraine'
p3109
S"'s"
p3110
S'parliament'
p3111
tp3112
a(S'universal'
p3113
g1799
g1800
tp3114
a(S'of'
p3115
g2785
g2786
tp3116
a(S'agrees'
p3117
S'with'
p3118
S'his'
p3119
tp3120
a(S'high'
p3121
S'ceilings'
p3122
g1
tp3123
a(S'high'
p3124
g426
g2387
tp3125
a(S'we'
p3126
S'all'
p3127
S'thought'
p3128
tp3129
a(S'with'
p3130
S'\xd0\xb9\xd0\xb8\xd0\xbd\xd0\xb4\xd1\x80\xd0\xb6\xd0\xb8\xd1\x85\xd0\xbe\xd0\xbc'
p3131
S'\xd1\x80\xd0\xb0\xd0\xb9\xd1\x85\xd0\xbb\xd0\xbe\xd0\xbc'
p3132
tp3133
a(S'private'
p3134
S'and'
p3135
S'public'
p3136
tp3137
a(g117
S'great'
p3138
S'paradox'
p3139
tp3140
a(S'soles'
p3141
S'of'
p3142
S'shoes'
p3143
tp3144
a(g2341
g2342
g426
tp3145
a(g117
S'window'
p3146
S'that'
p3147
tp3148
a(S'during'
p3149
S'the'
p3150
S'game'
p3151
tp3152
a(g2391
g2392
S'metal'
p3153
tp3154
a(S'in'
p3155
S'office'
p3156
g150
tp3157
a(S'also'
p3158
S'hopes'
p3159
S'that'
p3160
tp3161
a(S'our'
p3162
g2635
g1859
tp3163
a(g476
g477
S'region'
p3164
tp3165
a(g2392
g3153
g150
tp3166
a(S'czech'
p3167
S'1'
p3168
g426
tp3169
a(g1
S'which'
p3170
S'could'
p3171
tp3172
a(g2927
g2928
S'\xd1\x81\xd1\x82\xd1\x80\xd0\xb0\xd1\x85\xd0\xbe\xd0\xb2\xd1\x83'
p3173
tp3174
a(g2317
g2318
g1331
tp3175
a(g1
S'which'
p3176
S'will'
p3177
tp3178
a(S'in'
p3179
S'hungary'
p3180
g150
tp3181
a(S'beginning'
p3182
S'of'
p3183
g117
tp3184
a(S'of'
p3185
S'deutsche'
p3186
S'bahn'
p3187
tp3188
a(S'to'
p3189
S'visit'
p3190
S'survivors'
p3191
tp3192
a(S'in'
p3193
S'july'
p3194
g1
tp3195
a(S'years'
p3196
S'ago'
p3197
g150
tp3198
a(S'time'
p3199
S'to'
p3200
S'pay'
p3201
tp3202
a(S'number'
p3203
S'of'
p3204
S'children'
p3205
tp3206
a(g3142
g3143
g150
tp3207
a(S'travel'
p3208
g1828
g1829
tp3209
a(S'in'
p3210
S'both'
p3211
S'cases'
p3212
tp3213
a(S'armed'
p3214
S'self'
p3215
g426
tp3216
a(S'of'
p3217
S'the'
p3218
S'ibm'
p3219
tp3220
a(S'bulgaria'
p3221
g1431
g1432
tp3222
a(g3200
g3201
S'attention'
p3223
tp3224
a(g2765
S'the'
p3225
S'nfs'
p3226
tp3227
a(g1494
S'another'
p3228
g2117
tp3229
a(S'both'
p3230
g2073
g2074
tp3231
a(S'the'
p3232
S'second'
p3233
S'quarter'
p3234
tp3235
a(S'the'
p3236
g3141
g3142
tp3237
a(S'expensive'
p3238
g3124
g426
tp3239
a(g705
g706
S'expect'
p3240
tp3241
a(S'race'
p3242
S'with'
p3243
g2133
tp3244
a(S'the'
p3245
g2856
g426
tp3246
a(S'we'
p3247
S'already'
p3248
S'have'
p3249
tp3250
a(g2
g3035
g3036
tp3251
a(S'outdoor'
p3252
S'swimming'
p3253
S'pool'
p3254
tp3255
a(g3168
g426
S'year'
p3256
tp3257
a(g115
g1
g2
tp3258
a(S'and'
p3259
S'iraq'
p3260
g1
tp3261
a(S'the'
p3262
S'fight'
p3263
S'against'
p3264
tp3265
a(g297
S'control'
p3266
S'group'
p3267
tp3268
a(S'in'
p3269
S'the'
p3270
g2581
tp3271
a(g2898
g2899
g1
tp3272
a(S'fries'
p3273
g1708
g1709
tp3274
a(g1
g2529
g2417
tp3275
a(S'work'
p3276
g150
g2
tp3277
a(S'will'
p3278
g2660
g2661
tp3279
a(S'narrow'
p3280
S'waist'
p3281
g1
tp3282
a(S'the'
p3283
g2138
g2139
tp3284
a(S'to'
p3285
S'distract'
p3286
S'from'
p3287
tp3288
a(g150
S'our'
p3289
S'country'
p3290
tp3291
a(g3243
g2133
g332
tp3292
a(g2238
g2239
S'glasses'
p3293
tp3294
a(S'works'
p3295
g1401
g1321
tp3296
a(S'involved'
p3297
S'in'
p3298
S'the'
p3299
tp3300
a(g827
g828
g2764
tp3301
a(S'in'
p3302
S'the'
p3303
S'field'
p3304
tp3305
a(S'prepare'
p3306
g2909
g2910
tp3307
a(S'most'
p3308
g3238
g3124
tp3309
a(S'festa'
p3310
S'academica'
p3311
g426
tp3312
a(g3194
g1
S'after'
p3313
tp3314
a(S'travel'
p3315
S'bag'
p3316
g1
tp3317
a(S'with'
p3318
g1237
g1238
tp3319
a(g3135
g3136
S'sectors'
p3320
tp3321
a(S'selected'
p3322
S'children'
p3323
g1461
tp3324
a(S'trains'
p3325
S'this'
p3326
S'winter'
p3327
tp3328
a(g1740
g2453
g2454
tp3329
a(S'people'
p3330
S'will'
p3331
g2286
tp3332
a(g2846
g3095
S'data'
p3333
tp3334
a(g2014
S'to'
p3335
S'distribute'
p3336
tp3337
a(g3201
g3223
S'to'
p3338
tp3339
a(S'five'
p3340
g3009
g3010
tp3341
a(S'cooperation'
p3342
g3130
g3131
tp3343
a(S'france'
p3344
S'reported'
p3345
g117
tp3346
a(g1850
g2394
g1
tp3347
a(S'\xd0\xb4\xd0\xbe\xd0\xbf\xd0\xbe\xd0\xbb\xd0\xbd\xd0\xb8\xd1\x82\xd1\x8c\xd1\x81\xd1\x8f'
p3348
g2940
g2941
tp3349
a(g2629
g1
S'which'
p3350
tp3351
a(g411
g1750
S'is'
p3352
tp3353
a(S'rivals'
p3354
g1461
g1870
tp3355
a(S'will'
p3356
g2599
g2600
tp3357
a(g2325
S'move'
p3358
g150
tp3359
a(S'on'
p3360
S'the'
p3361
S'moon'
p3362
tp3363
a(S'of'
p3364
S'injuries'
p3365
g2024
tp3366
a(S'she'
p3367
S'believes'
p3368
S'that'
p3369
tp3370
a(g2
S'the'
p3371
S'problem'
p3372
tp3373
a(S'previous'
p3374
S'month'
p3375
g150
tp3376
a(S'to'
p3377
S'either'
p3378
S'their'
p3379
tp3380
a(S'another'
p3381
S'bank'
p3382
g150
tp3383
a(S'see'
p3384
S'chart'
p3385
g332
tp3386
a(S'look'
p3387
S'at'
p3388
S'some'
p3389
tp3390
a(g1782
g2257
g1
tp3391
a(g2800
S'connected'
p3392
S'with'
p3393
tp3394
a(S'public'
p3395
S'\xd1\x85\xd0\xbe\xd1\x80\xd0\xbe\xd0\xb2\xd1\x83\xd1\x8e'
p3396
S'music'
p3397
tp3398
a(g1033
g1034
S'germany'
p3399
tp3400
a(S'faithful'
p3401
S'declarations'
p3402
g1
tp3403
a(S'to'
p3404
g3387
g3388
tp3405
a(S'night'
p3406
g1
S'with'
p3407
tp3408
a(g117
g2356
g2357
tp3409
a(S'to'
p3410
g3381
g3382
tp3411
a(S'and'
p3412
S'he'
p3413
S'drops'
p3414
tp3415
a(S'third'
p3416
S'goal'
p3417
g411
tp3418
a(g2815
g2816
S'of'
p3419
tp3420
a(S'business'
p3421
S'models'
p3422
g150
tp3423
a(S'that'
p3424
S'no'
p3425
S'trade'
p3426
tp3427
a(S'iran'
p3428
S"'s"
p3429
S'nuclear'
p3430
tp3431
a(g2889
g2890
S'\xd0\xb4\xd0\xb2\xd0\xb0\xd0\xb9\xd0\xb5\xd1\x80'
p3432
tp3433
a(g3385
g332
g150
tp3434
a(S'it'
p3435
S'is'
p3436
S'pleasant'
p3437
tp3438
a(g1461
g3384
g3385
tp3439
a(S'miroslav'
p3440
g2575
g2576
tp3441
a(S'attention'
p3442
S'to'
p3443
g488
tp3444
a(S'\xd0\xbf\xd0\xb0\xd1\x86\xd0\xbb\xd0\xb8\xd0\xba'
p3445
g3117
g3118
tp3446
a(S'new'
p3447
S'european'
p3448
S'federation'
p3449
tp3450
a(S'of'
p3451
S'the'
p3452
S'articles'
p3453
tp3454
a(S'be'
p3455
S'completed'
p3456
S'by'
p3457
tp3458
a(S'graphic'
p3459
S'image'
p3460
g150
tp3461
a(S'transfer'
p3462
S'and'
p3463
S'was'
p3464
tp3465
a(g1
S'youth'
p3466
S'and'
p3467
tp3468
a(g1461
S'the'
p3469
S'original'
p3470
tp3471
a(g3365
g2024
g2025
tp3472
a(S'years'
p3473
g1
S'and'
p3474
tp3475
a(S'as'
p3476
g3126
g3127
tp3477
a(g2394
g1
S'which'
p3478
tp3479
a(g3469
g3470
S'information'
p3480
tp3481
a(g3436
g3437
g3404
tp3482
a(S'ibm'
p3483
S'sold'
p3484
S'\xd0\xbd\xd0\xb8\xd0\xb7\xd0\xba\xd0\xbe\xd0\xbf\xd1\x80\xd0\xb8\xd0\xb1\xd1\x8b\xd0\xbb\xd1\x8c\xd0\xbd\xd1\x8b\xd0\xb5'
p3485
tp3486
a(S'national'
p3487
S'team'
p3488
g1
tp3489
a(S'after'
p3490
S'one'
p3491
S'of'
p3492
tp3493
a(g2667
g2668
S'that'
p3494
tp3495
a(g3233
g3234
g1
tp3496
a(g1
S'thomas'
p3497
S'watson'
p3498
tp3499
a(S'visas'
p3500
S'for'
p3501
S'czech'
p3502
tp3503
a(S'woman'
p3504
g1
S'virginia'
p3505
tp3506
a(S'ubs'
p3507
S'also'
p3508
g2865
tp3509
a(g651
g652
g2052
tp3510
a(S'style'
p3511
g1
S'we'
p3512
tp3513
a(g536
S'be'
p3514
S'able'
p3515
tp3516
a(g2
S'is'
p3517
S'the'
p3518
tp3519
a(S'improve'
p3520
g2831
g2832
tp3521
a(S'marble'
p3522
S'walls'
p3523
S'are'
p3524
tp3525
a(S'old'
p3526
g2735
g426
tp3527
a(S'known'
p3528
g2467
g2468
tp3529
a(S'and'
p3530
S'turks'
p3531
g150
tp3532
a(S'm\xc3\xbcnchener'
p3533
S'r\xc3\xbcck'
p3534
g332
tp3535
a(g3437
g3404
g3387
tp3536
a(g2384
g2385
S'the'
p3537
tp3538
a(S'all'
p3539
g3406
g1
tp3540
a(S'and'
p3541
S'hardware'
p3542
g150
tp3543
a(S'believe'
p3544
S'it'
p3545
S'or'
p3546
tp3547
a(S'the'
p3548
S'most'
p3549
S'unusual'
p3550
tp3551
a(S'he'
p3552
S'added'
p3553
g150
tp3554
a(S'?'
p3555
g2620
g3412
tp3556
a(g2902
g2903
S'years'
p3557
tp3558
a(g2324
g2325
g3358
tp3559
a(S'the'
p3560
S'slovak'
p3561
g1
tp3562
a(g2370
g2629
g1
tp3563
a(S'in'
p3564
g117
g2356
tp3565
a(S'third'
p3566
S'round'
p3567
g1
tp3568
a(S'happened'
p3569
g2590
g2591
tp3570
a(S'more'
p3571
S'than'
p3572
S'19'
p3573
tp3574
a(g652
g2052
g2053
tp3575
a(S'general'
p3576
S'assembly'
p3577
g150
tp3578
a(S'also'
p3579
g3528
g2467
tp3580
a(g2733
S'new'
p3581
S'york'
p3582
tp3583
a(S'less'
p3584
g411
S'all'
p3585
tp3586
a(S'anton'
p3587
g150
S'and'
p3588
tp3589
a(S'that'
p3590
g2201
g62
tp3591
a(S'with'
p3592
S'the'
p3593
g2380
tp3594
a(g1
g3512
S'should'
p3595
tp3596
a(S'countries'
p3597
g1172
g1173
tp3598
a(S'experience'
p3599
g1
S'we'
p3600
tp3601
a(S'more'
p3602
S'than'
p3603
g117
tp3604
a(g1
g2237
g2238
tp3605
a(S'up'
p3606
S'to'
p3607
S'15'
p3608
tp3609
a(S'processes'
p3610
S'that'
p3611
S'can'
p3612
tp3613
a(S'week'
p3614
g1
g2237
tp3615
a(g2799
g2800
g3392
tp3616
a(g2768
g2769
g2645
tp3617
a(S'outdoor'
p3618
S'swimming'
p3619
g2103
tp3620
a(g2664
g2733
g3581
tp3621
a(S'the'
p3622
S'bank'
p3623
S'has'
p3624
tp3625
a(S'offers'
p3626
S'stunning'
p3627
S'views'
p3628
tp3629
a(g1
S'around'
p3630
S'which'
p3631
tp3632
a(S'dear'
p3633
g2728
g1
tp3634
a(S'aware'
p3635
S'of'
p3636
S'the'
p3637
tp3638
a(g1
S'with'
p3639
g2792
tp3640
a(S'the'
p3641
S'company'
p3642
g1
tp3643
a(S'not'
p3644
S'so'
p3645
g150
tp3646
a(S'citizens'
p3647
S'of'
p3648
S'the'
p3649
tp3650
a(S'in'
p3651
S'june'
p3652
g150
tp3653
a(S'foreign'
p3654
S'words'
p3655
S'and'
p3656
tp3657
a(g2192
g2344
S'the'
p3658
tp3659
a(g438
S'czech'
p3660
S'team'
p3661
tp3662
a(g3138
g3139
g593
tp3663
a(g3627
g3628
S'of'
p3664
tp3665
a(S'candidate'
p3666
g1
g62
tp3667
a(g1
S'this'
p3668
S'habit'
p3669
tp3670
a(S'is'
p3671
g2859
g2860
tp3672
a(g3146
g3147
g3089
tp3673
a(S'festa'
p3674
S'academia'
p3675
S'offers'
p3676
tp3677
a(g1834
S'study'
p3678
g1
tp3679
a(g2620
g3412
g3413
tp3680
a(g3147
g3089
g2912
tp3681
a(S'such'
p3682
S'as'
p3683
g1820
tp3684
a(g1603
g1
g62
tp3685
a(S'with'
p3686
S'both'
p3687
g3134
tp3688
a(S'bed'
p3689
g1
g2
tp3690
a(S'it'
p3691
S'turns'
p3692
S'out'
p3693
tp3694
a(S'fact'
p3695
S'that'
p3696
S'he'
p3697
tp3698
a(S'at'
p3699
S'least'
p3700
S'two'
p3701
tp3702
a(S'the'
p3703
S'highest'
p3704
S'political'
p3705
tp3706
a(S'second'
p3707
S'before'
p3708
S'the'
p3709
tp3710
a(g3443
g488
g489
tp3711
a(g3316
g1
S'or'
p3712
tp3713
a(S'former'
p3714
S'czechoslovakia'
p3715
g1331
tp3716
a(S'associated'
p3717
S'with'
p3718
S'the'
p3719
tp3720
a(S'stamp'
p3721
g1
g3630
tp3722
a(S'last'
p3723
g3614
g1
tp3724
a(g3692
g3693
S'that'
p3725
tp3726
a(g1087
g1088
S'switzerland'
p3727
tp3728
a(S'the'
p3729
S'case'
p3730
S'against'
p3731
tp3732
a(g1
g3505
S'\xd1\x80\xd0\xbe\xd0\xbc\xd0\xb5\xd1\x82\xd1\x82\xd0\xb8'
p3733
tp3734
a(S'in'
p3735
g117
S'sandstorm'
p3736
tp3737
a(g3098
g3099
g3695
tp3738
a(S'200'
p3739
S'billion'
p3740
g150
tp3741
a(S'the'
p3742
S'exact'
p3743
S'amount'
p3744
tp3745
a(g3678
g1
S'84'
p3746
tp3747
a(S'since'
p3748
S'1997'
p3749
g1
tp3750
a(g2172
S'francs'
p3751
S'for'
p3752
tp3753
a(g2362
g1
g3639
tp3754
a(S'sharply'
p3755
S'during'
p3756
S'the'
p3757
tp3758
a(S'sink'
p3759
S'and'
p3760
S'fingerprints'
p3761
tp3762
a(g3683
g1820
g426
tp3763
a(S'his'
p3764
S'first'
p3765
S'vice'
p3766
tp3767
a(g3687
g3134
g3135
tp3768
a(S'clash'
p3769
g3592
g3593
tp3770
a(S'game'
p3771
S'returns'
p3772
S'you'
p3773
tp3774
a(g1
g3626
g3627
tp3775
a(g1833
g1834
g3678
tp3776
a(S'with'
p3777
S'whom'
p3778
S'and'
p3779
tp3780
a(S'politicians'
p3781
S'and'
p3782
S'curators'
p3783
tp3784
a(S'cheese'
p3785
g1662
g1663
tp3786
a(S'fit'
p3787
g2772
g2773
tp3788
a(g3512
g3595
S'expect'
p3789
tp3790
a(S'in'
p3791
S'fact'
p3792
g1
tp3793
a(S'understandable'
p3794
S'nervousness'
p3795
g150
tp3796
a(S'his'
p3797
S'son'
p3798
g1
tp3799
a(g3704
g3705
S'level'
p3800
tp3801
a(g2654
g2655
S'his'
p3802
tp3803
a(g3639
g2792
g2793
tp3804
a(S'the'
p3805
S'current'
p3806
S'situation'
p3807
tp3808
a(g396
g397
S'ago'
p3809
tp3810
a(g2257
g1
S'and'
p3811
tp3812
a(S'ibm'
p3813
S'5150'
p3814
g1
tp3815
a(S'research'
p3816
S'group'
p3817
g1
tp3818
a(g3593
g2380
g1
tp3819
a(g2263
g2264
S'candidate'
p3820
tp3821
a(S'hand'
p3822
g1
g3626
tp3823
a(g3798
g1
g3497
tp3824
a(S'huge'
p3825
g1914
g1915
tp3826
a(S'no'
p3827
g2972
g2973
tp3828
a(S'understand'
p3829
S'their'
p3830
S'arguments'
p3831
tp3832
a(g2109
g2110
S'with'
p3833
tp3834
a(g3264
S'miroslav'
p3835
S'\xd0\xbf\xd0\xb5\xd0\xbb\xd1\x8c\xd1\x82\xd0\xbe\xd0\xb9'
p3836
tp3837
a(S'euro'
p3838
g426
S'skeptics'
p3839
tp3840
a(S'his'
p3841
S'advantage'
p3842
S'in'
p3843
tp3844
a(S'law'
p3845
g319
g320
tp3846
a(S'there'
p3847
S'is'
p3848
S'no'
p3849
tp3850
a(g411
S'and'
p3851
S'now'
p3852
tp3853
a(S'with'
p3854
S'little'
p3855
S'support'
p3856
tp3857
a(g3534
g332
g1
tp3858
a(g1867
g1868
S'unreliable'
p3859
tp3860
a(S'of'
p3861
S'the'
p3862
S'things'
p3863
tp3864
a(g250
g3739
g3740
tp3865
a(g3313
S'his'
p3866
S'spectacular'
p3867
tp3868
a(S'ibm'
p3869
g1
S'as'
p3870
tp3871
a(S'gift'
p3872
S'from'
p3873
S'germany'
p3874
tp3875
a(S'germans'
p3876
g3530
g3531
tp3877
a(S'to'
p3878
S'show'
p3879
S'character'
p3880
tp3881
a(S'and'
p3882
S'the'
p3883
S'swiss'
p3884
tp3885
a(g2
g1
S'but'
p3886
tp3887
a(g3508
g2865
g2866
tp3888
a(S'more'
p3889
S'money'
p3890
S'in'
p3891
tp3892
a(S'said'
p3893
g1
g1854
tp3894
a(S'and'
p3895
S'statistical'
p3896
S'analysis'
p3897
tp3898
a(g3263
g3264
g3835
tp3899
a(g997
S"'s"
p3900
S'commodity'
p3901
tp3902
a(g3863
S'that'
p3903
S'make'
p3904
tp3905
a(g411
S'he'
p3906
S'added'
p3907
tp3908
a(S'his'
p3909
S'or'
p3910
S'her'
p3911
tp3912
a(S'more'
p3913
S'than'
p3914
S'11'
p3915
tp3916
a(S'and'
p3917
g117
S'half'
p3918
tp3919
a(S'palace'
p3920
g426
S'favorite'
p3921
tp3922
a(S'organization'
p3923
g1
S'rather'
p3924
tp3925
a(S'\xd0\xbb\xd1\x83\xd1\x81\xd0\xba\xd0\xb8\xd0\xbd\xd0\xb8'
p3926
S'from'
p3927
g1592
tp3928
a(S'insurance'
p3929
S'company'
p3930
S'v\xc5\xa1eobecn\xc3\xa1'
p3931
tp3932
a(S'football'
p3933
g1
g1113
tp3934
a(S'candidate'
p3935
g411
S'and'
p3936
tp3937
a(S'an'
p3938
S'attempt'
p3939
S'to'
p3940
tp3941
a(g1
S'we'
p3942
S'could'
p3943
tp3944
a(S'image'
p3945
S'and'
p3946
S'style'
p3947
tp3948
a(g3862
g3863
g3903
tp3949
a(S'to'
p3950
S'one'
p3951
S'or'
p3952
tp3953
a(g2
S'\xd1\x80\xd0\xb8\xd1\x85\xd1\x82\xd0\xb0\xd1\x80\xd0\xb6\xd0\xbe\xd0\xb2\xd0\xb0'
p3954
g3893
tp3955
a(S'continue'
p3956
S'to'
p3957
S'act'
p3958
tp3959
a(S'year'
p3960
g3917
g117
tp3961
a(g3900
g3901
S'exchanges'
p3962
tp3963
a(S'festival'
p3964
g3674
g3675
tp3965
a(g1722
g830
g831
tp3966
a(g3281
g1
g614
tp3967
a(S'about'
p3968
S'it'
p3969
g150
tp3970
a(g3930
g3931
S'zdravotn\xc3\xad'
p3971
tp3972
a(S'doubt'
p3973
g1331
g2
tp3974
a(S'microsoft'
p3975
g1
S'which'
p3976
tp3977
a(g3830
g3831
g1
tp3978
a(g3831
g1
S'but'
p3979
tp3980
a(S'destruction'
p3981
S'was'
p3982
S'halted'
p3983
tp3984
a(S'investment'
p3985
S'bankers'
p3986
S'suddenly'
p3987
tp3988
a(S'food'
p3989
S'prices'
p3990
g1
tp3991
a(S'last'
p3992
g3960
g3917
tp3993
a(S'for'
p3994
S'the'
p3995
S'first'
p3996
tp3997
a(g3954
g3893
g1
tp3998
a(S'than'
p3999
g250
S'220'
p4000
tp4001
a(S'in'
p4002
S'switzerland'
p4003
g1
tp4004
a(S'said'
p4005
S'mark'
p4006
g3926
tp4007
a(g2944
g2945
g1422
tp4008
a(S'is'
p4009
g2544
g2545
tp4010
a(S'walls'
p4011
g1
S'which'
p4012
tp4013
a(g426
g3606
g3607
tp4014
a(S'more'
p4015
S'than'
p4016
S'30,000'
p4017
tp4018
a(g3927
g1592
g1593
tp4019
a(g2769
g2645
g2170
tp4020
a(g2642
g2643
S'for'
p4021
tp4022
a(g62
g3829
g3830
tp4023
a(g250
g4000
S'billion'
p4024
tp4025
a(S'as'
p4026
g2776
g2777
tp4027
a(g766
g767
S'bought'
p4028
tp4029
a(S'to'
p4030
g2096
g1
tp4031
a(g2833
S'uefa'
p4032
S'and'
p4033
tp4034
a(g335
g1
S'the'
p4035
tp4036
a(S'this'
p4037
S'area'
p4038
g150
tp4039
a(g1017
g217
g218
tp4040
a(S'49'
p4041
S'percent'
p4042
S'said'
p4043
tp4044
a(g62
S'asked'
p4045
S'myself'
p4046
tp4047
a(g1
S'the'
p4048
S'building'
p4049
tp4050
a(g1355
g1
g62
tp4051
a(S'leads'
p4052
g3950
g3951
tp4053
a(S'dirty'
p4054
S'boots'
p4055
g411
tp4056
a(g2832
g2833
g4032
tp4057
a(S'\xd1\x80\xd0\xbe\xd0\xb7\xd0\xb0\xd0\xb1\xd0\xb5\xd1\x82'
p4058
S'moss'
p4059
S'\xd0\xba\xd0\xb0\xd0\xbd\xd1\x82\xd0\xb5\xd1\x80'
p4060
tp4061
a(S'slogan'
p4062
g2
S'think'
p4063
tp4064
a(g2071
S'reported'
p4065
S'that'
p4066
tp4067
a(g3219
g4058
g4059
tp4068
a(S'and'
p4069
S'if'
p4070
S'someone'
p4071
tp4072
a(S'stunning'
p4073
g2278
g2279
tp4074
a(g3693
g3725
S'for'
p4075
tp4076
a(S'example'
p4077
g1
S'some'
p4078
tp4079
a(S'as'
p4080
g117
S'means'
p4081
tp4082
a(g1930
g1931
S'try'
p4083
tp4084
a(S'autumn'
p4085
S'suburbs'
p4086
S'or'
p4087
tp4088
a(S'little'
p4089
S'enthusiasm'
p4090
S'for'
p4091
tp4092
a(S'see'
p4093
g1794
g1795
tp4094
a(S'next'
p4095
S'to'
p4096
S'me'
p4097
tp4098
a(S'on'
p4099
S'tuesday'
p4100
g1
tp4101
a(g2945
g1422
g62
tp4102
a(g1868
g3859
S'people'
p4103
tp4104
a(S'may'
p4105
S'be'
p4106
S'the'
p4107
tp4108
a(S'representative'
p4109
S'\xd1\x8f\xd0\xb1\xd0\xbb\xd0\xbe\xd0\xbd\xd0\xb5\xd1\x86\xd0\xb0'
p4110
g150
tp4111
a(g2070
g2071
g4065
tp4112
a(S'like'
p4113
S'to'
p4114
S'have'
p4115
tp4116
a(S'gambling'
p4117
g1
S'according'
p4118
tp4119
a(S'trade'
p4120
S'cycle'
p4121
g150
tp4122
a(S'amazing'
p4123
S'swimming'
p4124
S'pool'
p4125
tp4126
a(g695
g1
g52
tp4127
a(S'was'
p4128
g1500
g1501
tp4129
a(g3073
g1
S'according'
p4130
tp4131
a(g1572
g1
S'and'
p4132
tp4133
a(g1642
g1
S'what'
p4134
tp4135
a(S'reason'
p4136
g2406
g2136
tp4137
a(g1457
g1458
g1
tp4138
a(S'exhibition'
p4139
S'on'
p4140
S'tuesday'
p4141
tp4142
a(S'ubs'
p4143
S'in'
p4144
S'2007'
p4145
tp4146
a(g2750
g4030
g2096
tp4147
a(g3652
g150
g2
tp4148
a(S'private'
p4149
S'banks'
p4150
g1
tp4151
a(S'architectural'
p4152
S'history'
p4153
S'with'
p4154
tp4155
a(g2762
g3039
g3040
tp4156
a(g2249
g2762
g3039
tp4157
a(g761
g762
S'to'
p4158
tp4159
a(g3452
g3453
S'on'
p4160
tp4161
a(S'the'
p4162
S'agency'
p4163
g150
tp4164
a(S'will'
p4165
S'be'
p4166
S'elected'
p4167
tp4168
a(S'former'
p4169
S'czechoslovakia'
p4170
g1
tp4171
a(S'past'
p4172
g1
g1036
tp4173
a(g1758
S'weakness'
p4174
g150
tp4175
a(S'flew'
p4176
S'from'
p4177
g1845
tp4178
a(S'joseph'
p4179
S'\xd0\xb0\xd0\xba\xd0\xba\xd0\xb5\xd1\x80\xd0\xbc\xd0\xb0\xd0\xbd\xd0\xbd\xd0\xb0'
p4180
g1
tp4181
a(S'if'
p4182
S'your'
p4183
S'business'
p4184
tp4185
a(S'management'
p4186
S'as'
p4187
g117
tp4188
a(S'if'
p4189
S'you'
p4190
S'are'
p4191
tp4192
a(g4177
g1845
g1846
tp4193
a(g1757
g1758
g4174
tp4194
a(g1
g2710
S'only'
p4195
tp4196
a(g3990
g1
g2
tp4197
a(S'\xd0\xbf\xd1\x80\xd0\xb0\xd0\xb2\xd0\xbe\xd1\x8d\xd0\xba\xd1\x81\xd1\x82\xd1\x80\xd0\xb5\xd0\xbc\xd0\xb8\xd1\x81\xd1\x82\xd1\x81\xd0\xba\xd0\xb8\xd1\x85'
p4198
S'attacks'
p4199
S'on'
p4200
tp4201
a(g1
g44
g45
tp4202
a(S'anything'
p4203
g411
S'but'
p4204
tp4205
a(g4059
g4060
g150
tp4206
a(g411
S'infrastructure'
p4207
g411
tp4208
a(g150
S'\xd0\xb1\xd0\xb5\xd1\x80\xd0\xb1\xd1\x80'
p4209
g426
tp4210
a(S'football'
p4211
g411
S'and'
p4212
tp4213
a(g1
S'the'
p4214
S'current'
p4215
tp4216
a(S'you'
p4217
S'become'
p4218
S'part'
p4219
tp4220
a(g1490
S'works'
p4221
S'in'
p4222
tp4223
a(S'with'
p4224
g1616
g1617
tp4225
a(S'refused'
p4226
g3189
g3190
tp4227
a(g1
S'because'
p4228
S'the'
p4229
tp4230
a(S'the'
p4231
g2993
g2994
tp4232
a(S'of'
p4233
g2950
g2951
tp4234
a(S'their'
p4235
g3511
g1
tp4236
a(S'new'
p4237
S'rules'
p4238
S'fa\xc4\x8dr'
p4239
tp4240
a(S'we'
p4241
S'often'
p4242
S'see'
p4243
tp4244
a(S'to'
p4245
S'struggle'
p4246
S'in'
p4247
tp4248
a(g4055
g411
S'children'
p4249
tp4250
a(g411
g1939
S'you'
p4251
tp4252
a(S'broader'
p4253
S's&p'
p4254
S'500'
p4255
tp4256
a(S'eurozone'
p4257
S'countries'
p4258
g2620
tp4259
a(S'thilo'
p4260
g2194
g1485
tp4261
a(g1596
g332
g1
tp4262
a(S'final'
p4263
S'exam'
p4264
g1
tp4265
a(S'more'
p4266
S'support'
p4267
g1
tp4268
a(S'karel'
p4269
S'\xd1\x80\xd1\x83\xd0\xb6\xd0\xb8\xd1\x87\xd0\xba\xd0\xb8'
p4270
g1
tp4271
a(S'works'
p4272
S'of'
p4273
S'art'
p4274
tp4275
a(S'such'
p4276
g4026
g2776
tp4277
a(g4258
g2620
S'statistical'
p4278
tp4279
a(S'this'
p4280
S'moment'
p4281
S'since'
p4282
tp4283
a(S'contradicts'
p4284
S'\xd0\xbf\xd0\xb5\xd0\xbb\xd1\x8c\xd1\x82\xd0\xb5'
p4285
g150
tp4286
a(S'with'
p4287
S'important'
p4288
S'details'
p4289
tp4290
a(g332
g150
g3344
tp4291
a(S'end'
p4292
S'of'
p4293
S'his'
p4294
tp4295
a(g1489
g1490
g4221
tp4296
a(g3402
g1
S'which'
p4297
tp4298
a(S'game'
p4299
g807
g808
tp4300
a(S'focuses'
p4301
S'both'
p4302
S'on'
p4303
tp4304
a(g2399
g332
g150
tp4305
a(S'not'
p4306
S'only'
p4307
g4002
tp4308
a(g1
g4297
g2364
tp4309
a(S'bodyguard'
p4310
S'and'
p4311
g2298
tp4312
a(S'to'
p4313
S'return'
p4314
S'to'
p4315
tp4316
a(g426
g3839
g411
tp4317
a(g4307
g4002
g4003
tp4318
a(g4311
g2298
g2299
tp4319
a(S'director'
p4320
S'would'
p4321
g4113
tp4322
a(S'from'
p4323
S'services'
p4324
g1
tp4325
a(g4297
g2364
g1512
tp4326
a(g2
S'he'
p4327
S'is'
p4328
tp4329
a(g946
g947
g1
tp4330
a(S'in'
p4331
S'frankfurt'
p4332
S'took'
p4333
tp4334
a(S"'s"
p4335
g3308
g3238
tp4336
a(S'illegal'
p4337
g2918
g2919
tp4338
a(g3183
g117
g3825
tp4339
a(g74
g75
S'which'
p4340
tp4341
a(S'the'
p4342
S'financial'
p4343
S'sector'
p4344
tp4345
a(g4246
g4247
S'the'
p4346
tp4347
a(g3655
g3656
S'jargon'
p4348
tp4349
a(S'and'
p4350
S'mario'
p4351
S'did'
p4352
tp4353
a(g1
g3230
g2073
tp4354
a(g4218
g4219
S'of'
p4355
tp4356
a(S'more'
p4357
S'money'
p4358
S'on'
p4359
tp4360
a(g117
g3825
g1914
tp4361
a(S'hard'
p4362
S'work'
p4363
g1
tp4364
a(g3260
g1
S'we'
p4365
tp4366
a(S'highest'
p4367
S'in'
p4368
S'europe'
p4369
tp4370
a(S'and'
p4371
S'encourage'
p4372
g2353
tp4373
a(g3760
g3761
S'on'
p4374
tp4375
a(S'out'
p4376
S'of'
p4377
S'three'
p4378
tp4379
a(S'computer'
p4380
S'industry'
p4381
g1
tp4382
a(S'healthy'
p4383
S'development'
p4384
g150
tp4385
a(g150
g2960
g1772
tp4386
a(S'like'
p4387
g117
g1712
tp4388
a(g2974
S'chairman'
p4389
S'of'
p4390
tp4391
a(S'know'
p4392
S'the'
p4393
S'rules'
p4394
tp4395
a(g1
S'he'
p4396
g4301
tp4397
a(g1767
g1768
S'at'
p4398
tp4399
a(S'world'
p4400
S'hunger'
p4401
g150
tp4402
a(g1
S'the'
p4403
S'main'
p4404
tp4405
a(S'children'
p4406
S"'s"
p4407
S'swimming'
p4408
tp4409
a(S'will'
p4410
S'have'
p4411
S'no'
p4412
tp4413
a(S'the'
p4414
S'trend'
p4415
g150
tp4416
a(S'the'
p4417
S'one'
p4418
S'that'
p4419
tp4420
a(g4315
S'six'
p4421
S'months'
p4422
tp4423
a(g1
g4134
S'areas'
p4424
tp4425
a(g4199
g4200
S'turkish'
p4426
tp4427
a(g4314
g4315
g4421
tp4428
a(g2567
g2568
g150
tp4429
a(S'appearance'
p4430
g1
g2313
tp4431
a(g4372
g2353
g2354
tp4432
a(g3782
g3783
S'to'
p4433
tp4434
a(S'in'
p4435
S'1981'
p4436
g150
tp4437
a(S'travel'
p4438
S'agencies'
p4439
S'offered'
p4440
tp4441
a(S'and'
p4442
S'the'
p4443
S'rest'
p4444
tp4445
a(g2219
g2220
g1331
tp4446
a(S'more'
p4447
S'realistic'
p4448
g150
tp4449
a(g3545
g3546
S'not'
p4450
tp4451
a(S'group'
p4452
g1
S'the'
p4453
tp4454
a(S'fact'
p4455
S'that'
p4456
g117
tp4457
a(S'the'
p4458
S'european'
p4459
S'council'
p4460
tp4461
a(g1
S'you'
p4462
S'have'
p4463
tp4464
a(S'afghanistan'
p4465
g3259
g3260
tp4466
a(S'art'
p4467
g1
S'and'
p4468
tp4469
a(S'going'
p4470
g4313
g4314
tp4471
a(g2586
g2587
S'environment'
p4472
tp4473
a(S'to'
p4474
S'16,000'
p4475
g150
tp4476
a(S'the'
p4477
S'winners'
p4478
g1
tp4479
a(g2587
g4472
g150
tp4480
a(S'losses'
p4481
g1
g711
tp4482
a(S'the'
p4483
g2922
g2923
tp4484
a(g4456
g117
g396
tp4485
a(g150
g3344
g3345
tp4486
a(S'styles'
p4487
g2620
g411
tp4488
a(g1510
g4387
g117
tp4489
a(g2960
g1772
g1773
tp4490
a(S'in'
p4491
g2739
g2740
tp4492
a(g1358
g723
g724
tp4493
a(g1509
g1510
g4387
tp4494
a(S'in'
p4495
S'zurich'
p4496
g150
tp4497
a(g1
g3313
g3866
tp4498
a(S'this'
p4499
S'winter'
p4500
S'at'
p4501
tp4502
a(g2819
g1026
g1027
tp4503
a(S'installation'
p4504
g1
g3230
tp4505
a(g3546
g4450
g1
tp4506
a(g411
S'in'
p4507
S'the'
p4508
tp4509
a(S'too'
p4510
S'early'
p4511
g3080
tp4512
a(S'player'
p4513
g1
S'and'
p4514
tp4515
a(S'continue'
p4516
S'to'
p4517
S'work'
p4518
tp4519
a(g4154
g1952
g1
tp4520
a(g4033
S'fifa'
p4521
g411
tp4522
a(S'rejected'
p4523
g3938
g3939
tp4524
a(S'attracted'
p4525
g1900
g1674
tp4526
a(S'the'
p4527
S'bank'
p4528
g150
tp4529
a(S'punishment'
p4530
g1
g2
tp4531
a(S'the'
p4532
S'match'
p4533
S'ended'
p4534
tp4535
a(g1
S'we'
p4536
S'have'
p4537
tp4538
a(S'growing'
p4539
g3203
g3204
tp4540
a(S'virginia'
p4541
S'\xd1\x80\xd0\xbe\xd0\xbc\xd0\xb5\xd1\x82\xd1\x82\xd0\xb8'
p4542
g1
tp4543
a(S'of'
p4544
S'art'
p4545
S'history'
p4546
tp4547
a(g2342
g426
g4073
tp4548
a(g426
g4073
g2278
tp4549
a(S'the'
p4550
g4320
g4321
tp4551
a(S'among'
p4552
g281
g282
tp4553
a(g2
g4182
g4183
tp4554
a(S'the'
p4555
g4367
g4368
tp4556
a(g463
g464
S'statistical'
p4557
tp4558
a(S'the'
p4559
S'hotel'
p4560
S'or'
p4561
tp4562
a(g2373
g1
S'ate'
p4563
tp4564
a(g1958
g1959
S'3rd'
p4565
tp4566
a(S'try'
p4567
S'to'
p4568
S'prevent'
p4569
tp4570
a(S'along'
p4571
g4224
g1616
tp4572
a(S'banking'
p4573
S'analyst'
p4574
S'hans'
p4575
tp4576
a(S'even'
p4577
S'when'
p4578
S'other'
p4579
tp4580
a(S'its'
p4581
S'activities'
p4582
S'in'
p4583
tp4584
a(g1959
g4565
S'round'
p4585
tp4586
a(S'one'
p4587
S'thing'
p4588
S'is'
p4589
tp4590
a(S'it'
p4591
S'was'
p4592
S'not'
p4593
tp4594
a(g4545
g4546
g1937
tp4595
a(g3270
g2581
g2582
tp4596
a(S'the'
p4597
g4530
g1
tp4598
a(S'in'
p4599
S'magazines'
p4600
g1461
tp4601
a(g2399
S'of'
p4602
S'children'
p4603
tp4604
a(S'baths'
p4605
g2521
g2522
tp4606
a(g2333
g2334
S'have'
p4607
tp4608
a(S'that'
p4609
S'best'
p4610
S'expresses'
p4611
tp4612
a(g1
S'and'
p4613
S'that'
p4614
tp4615
a(S'stylist'
p4616
g2702
g2703
tp4617
a(g4087
S'high'
p4618
S'in'
p4619
tp4620
a(S'largest'
p4621
S'international'
p4622
S'banks'
p4623
tp4624
a(g2526
g2527
S'flint'
p4625
tp4626
a(g1854
g1855
S'she'
p4627
tp4628
a(g1
g4035
S'newspaper'
p4629
tp4630
a(S'this'
p4631
S'time'
p4632
S'with'
p4633
tp4634
a(S'pages'
p4635
g4599
g4600
tp4636
a(g4333
S'responsibility'
p4637
S'for'
p4638
tp4639
a(g2508
g2731
g150
tp4640
a(g2308
g2309
S'and'
p4641
tp4642
a(S'two'
p4643
S'points'
p4644
g150
tp4645
a(g2825
g117
S'woman'
p4646
tp4647
a(S'they'
p4648
S'do'
p4649
S"n't"
p4650
tp4651
a(S'new'
p4652
S'head'
p4653
S'of'
p4654
tp4655
a(S'western'
p4656
S'europe'
p4657
S'was'
p4658
tp4659
a(S'allows'
p4660
S'us'
p4661
S'to'
p4662
tp4663
a(S'of'
p4664
g587
g588
tp4665
a(S'more'
p4666
S'support'
p4667
S'for'
p4668
tp4669
a(g4511
g3080
g3081
tp4670
a(g332
g1
S'\xd0\xb4\xd0\xb0\xd1\x80\xd0\xb8\xd0\xbd\xd0\xb0'
p4671
tp4672
a(S'for'
p4673
S'our'
p4674
S'first'
p4675
tp4676
a(S'of'
p4677
g4458
g4459
tp4678
a(g4578
g4579
S'banks'
p4679
tp4680
a(S'the'
p4681
S'crisis'
p4682
g150
tp4683
a(S'meetings'
p4684
g1
S'both'
p4685
tp4686
a(S'led'
p4687
g466
g117
tp4688
a(S'from'
p4689
S'the'
p4690
S'outset'
p4691
tp4692
a(g1373
g1374
S'the'
p4693
tp4694
a(S'to'
p4695
S'understand'
p4696
g411
tp4697
a(g2824
g2825
g117
tp4698
a(g3976
S'is'
p4699
S'based'
p4700
tp4701
a(g62
g2693
S'need'
p4702
tp4703
a(S'to'
p4704
S'grow'
p4705
g150
tp4706
a(g1568
S'has'
p4707
S'lost'
p4708
tp4709
a(g4546
g1937
g117
tp4710
a(S'instead'
p4711
S'of'
p4712
S'the'
p4713
tp4714
a(S'of'
p4715
S'0.3'
p4716
g2399
tp4717
a(S'the'
p4718
g1970
g1971
tp4719
a(S'german'
p4720
S'police'
p4721
S'after'
p4722
tp4723
a(g3064
g2
S'held'
p4724
tp4725
a(S'hot'
p4726
S'tracks'
p4727
g1
tp4728
a(S'food'
p4729
g1
g681
tp4730
a(g4422
g1
g2
tp4731
a(g2773
g2774
S"'s"
p4732
tp4733
a(S'current'
p4734
S'plan'
p4735
g1
tp4736
a(S'and'
p4737
S'author'
p4738
S'of'
p4739
tp4740
a(g4421
g4422
g1
tp4741
a(g4396
g4301
g4302
tp4742
a(S'the'
p4743
S'desert'
p4744
g1
tp4745
a(S'different'
p4746
S'styles'
p4747
g2620
tp4748
a(S'the'
p4749
S'queue'
p4750
g3539
tp4751
a(S'too'
p4752
S'much'
p4753
g1
tp4754
a(S'on'
p4755
g3232
g3233
tp4756
a(g1926
g2330
g4718
tp4757
a(g3345
g117
S'small'
p4758
tp4759
a(S'in'
p4760
g4749
g4750
tp4761
a(g1710
g1857
S'the'
p4762
tp4763
a(S'they'
p4764
S'really'
p4765
S'are'
p4766
tp4767
a(S'scandal'
p4768
g470
g471
tp4769
a(g4600
g1461
g2675
tp4770
a(S'was'
p4771
S'announced'
p4772
S'that'
p4773
tp4774
a(g2901
g2399
S'of'
p4775
tp4776
a(S'happy'
p4777
S'about'
p4778
S'it'
p4779
tp4780
a(g3715
g1331
S'\xc4\x8dedok'
p4781
tp4782
a(S'problems'
p4783
S'arising'
p4784
S'from'
p4785
tp4786
a(g1600
g2086
S'became'
p4787
tp4788
a(S'numbers'
p4789
g1922
g1923
tp4790
a(S'lindt'
p4791
S'&'
p4792
S'spr\xc3\xbcngli'
p4793
tp4794
a(S'happening'
p4795
g2207
g2208
tp4796
a(S'how'
p4797
S'your'
p4798
S'opponent'
p4799
tp4800
a(g4765
g4766
g150
tp4801
a(g1051
S'that'
p4802
S'speculate'
p4803
tp4804
a(S'banking'
p4805
g4768
g470
tp4806
a(S'not'
p4807
g4777
g4778
tp4808
a(S'4'
p4809
g2399
g150
tp4810
a(S'13'
p4811
g123
g124
tp4812
a(g1
S'and'
p4813
S'encourage'
p4814
tp4815
a(S'finally'
p4816
g4660
g4661
tp4817
a(g2330
g4718
g1970
tp4818
a(S'code'
p4819
g4523
g3938
tp4820
a(g117
S'candidate'
p4821
g150
tp4822
a(S'players'
p4823
g2947
g2948
tp4824
a(S'the'
p4825
S'situation'
p4826
g150
tp4827
a(g4288
g4289
S'about'
p4828
tp4829
a(g4750
g3539
g3406
tp4830
a(S'stand'
p4831
g4760
g4749
tp4832
a(S'continued'
p4833
g4704
g4705
tp4834
a(S'four'
p4835
S'companies'
p4836
g1
tp4837
a(S'see'
p4838
g4797
g4798
tp4839
a(g2789
S'some'
p4840
S'point'
p4841
tp4842
a(g1461
S'less'
p4843
g332
tp4844
a(g2979
g2980
S'fight'
p4845
tp4846
a(g4802
g4803
S'on'
p4847
tp4848
a(g1
g2381
S'your'
p4849
tp4850
a(S'another'
p4851
S'weighs'
p4852
S'more'
p4853
tp4854
a(S'french'
p4855
g3273
g1708
tp4856
a(S'existing'
p4857
g3421
g3422
tp4858
a(g1
S'thailand'
p4859
g150
tp4860
a(g2973
g2974
g4389
tp4861
a(S'speculate'
p4862
S'on'
p4863
S'agricultural'
p4864
tp4865
a(S'tips'
p4866
g389
g390
tp4867
a(S'second'
p4868
g117
g2252
tp4869
a(S'took'
p4870
g3797
g3798
tp4871
a(g4035
g4629
S'\xd0\xb1\xd0\xb8\xd0\xbb\xd1\x8c\xd0\xb4'
p4872
tp4873
a(S'real'
p4874
g2377
g1
tp4875
a(S'country'
p4876
g1
g4859
tp4877
a(S'on'
p4878
S'the'
p4879
S'50th'
p4880
tp4881
a(S'stagnation'
p4882
g332
g150
tp4883
a(g117
g2252
g2253
tp4884
a(g3425
g3426
g2
tp4885
a(S'exotic'
p4886
g4876
g1
tp4887
a(S'now'
p4888
S'incredibly'
p4889
S'cheap'
p4890
tp4891
a(S'says'
p4892
g922
g923
tp4893
a(g2753
g2808
S'sex'
p4894
tp4895
a(S'migrants'
p4896
g4410
g4411
tp4897
a(S'year'
p4898
g1
S'when'
p4899
tp4900
a(S'its'
p4901
g2093
g2094
tp4902
a(g3027
S'eventually'
p4903
S'became'
p4904
tp4905
a(S'pool'
p4906
g426
S'wellness'
p4907
tp4908
a(g3119
S'opinion'
p4909
g1
tp4910
a(S'and'
p4911
S'three'
p4912
S'guests'
p4913
tp4914
a(g332
g1
g708
tp4915
a(g4332
g4333
g4637
tp4916
a(S"n't"
p4917
S'want'
p4918
S'someone'
p4919
tp4920
a(S'states'
p4921
g1
S'\xd0\xb0\xd0\xba\xd0\xba\xd0\xb5\xd1\x80\xd0\xbc\xd0\xb0\xd0\xbd\xd0\xbd'
p4922
tp4923
a(g4779
g150
g2620
tp4924
a(g411
g3093
S'countries'
p4925
tp4926
a(S'\xd0\xbf\xd0\xb5\xd0\xbb\xd1\x8c\xd1\x82\xd0\xb0'
p4927
g1
g4165
tp4928
a(S'clashes'
p4929
g1
g2623
tp4930
a(S'growth'
p4931
g4715
g4716
tp4932
a(S'trying'
p4933
S'to'
p4934
S'improve'
p4935
tp4936
a(g2808
g4894
S'in'
p4937
tp4938
a(g2527
g4625
g1
tp4939
a(g4633
g2875
g1
tp4940
a(S'give'
p4941
g3092
g411
tp4942
a(S'active'
p4943
S'saxons'
p4944
g150
tp4945
a(g4732
g1808
g1809
tp4946
a(S'home'
p4947
g1
S'but'
p4948
tp4949
a(g2774
g4732
g1808
tp4950
a(S'asset'
p4951
S'management'
p4952
S'as'
p4953
tp4954
a(S'merger'
p4955
S'was'
p4956
S'too'
p4957
tp4958
a(S'sleep'
p4959
S'together'
p4960
g1
tp4961
a(S'steam'
p4962
S'out'
p4963
g2968
tp4964
a(g2412
g2413
S'that'
p4965
tp4966
a(S'half'
p4967
S'full'
p4968
g1
tp4969
a(g117
S'coincidence'
p4970
g1
tp4971
a(g489
g490
S'around'
p4972
tp4973
a(S'and'
p4974
S'czechoslovakia'
p4975
g332
tp4976
a(g4542
g1
S'will'
p4977
tp4978
a(g1
S'as'
p4979
S'it'
p4980
tp4981
a(S'bridge'
p4982
g1
S'where'
p4983
tp4984
a(g1428
g1429
S'championship'
p4985
tp4986
a(g4411
g4412
S'choice'
p4987
tp4988
a(S'with'
p4989
S'them'
p4990
S'and'
p4991
tp4992
a(g1
S'and'
p4993
S'we'
p4994
tp4995
a(S'nutrition'
p4996
S'and'
p4997
S'enough'
p4998
tp4999
a(g2
S'for'
p5000
S'example'
p5001
tp5002
a(g4107
g4868
g117
tp5003
a(S'and'
p5004
S'the'
p5005
S'building'
p5006
tp5007
a(S'habits'
p5008
S'that'
p5009
S'make'
p5010
tp5011
a(g5001
g1
S'it'
p5012
tp5013
a(g1
g2789
g4840
tp5014
a(g4006
g3926
g3927
tp5015
a(g4970
g1
g2
tp5016
a(S'humanities'
p5017
g411
g2510
tp5018
a(S'by'
p5019
S'karl'
p5020
S'\xd1\x88\xd0\xb2\xd0\xb0\xd0\xbd\xd1\x86\xd0\xb5\xd1\x80\xd0\xbe\xd0\xbc'
p5021
tp5022
a(g3811
g3560
g3561
tp5023
a(g4658
S'cancelled'
p5024
g150
tp5025
a(S'with'
p5026
g4901
g2093
tp5027
a(S'the'
p5028
g4734
g4735
tp5029
a(S'two'
p5030
g426
S'speed'
p5031
tp5032
a(S'if'
p5033
S'another'
p5034
S'crisis'
p5035
tp5036
a(g4443
g4444
S'of'
p5037
tp5038
a(S'wants'
p5039
S'to'
p5040
S'find'
p5041
tp5042
a(S'the'
p5043
g3813
g3814
tp5044
a(S'the'
p5045
S'previous'
p5046
S'president'
p5047
tp5048
a(S'designed'
p5049
g5019
g5020
tp5050
a(S'economic'
p5051
S'development'
p5052
S'in'
p5053
tp5054
a(g426
g5031
S'europe'
p5055
tp5056
a(S'future'
p5057
S'innovation'
p5058
g150
tp5059
a(g1268
g2222
g1964
tp5060
a(S'sludge'
p5061
g1
S'which'
p5062
tp5063
a(g2
S'we'
p5064
S'have'
p5065
tp5066
a(S'another'
p5067
g1461
g4843
tp5068
a(S'the'
p5069
S'belvedere'
p5070
S'museum'
p5071
tp5072
a(S'race'
p5073
g332
g411
tp5074
a(g624
g1
S'\xd1\x80\xd0\xb0\xd0\xb9\xd1\x85\xd0\xbb'
p5075
tp5076
a(g1110
g1111
S'need'
p5077
tp5078
a(S'even'
p5079
g5033
g5034
tp5080
a(g411
S'given'
p5081
S'all'
p5082
tp5083
a(S'hedge'
p5084
g426
S'fund'
p5085
tp5086
a(g426
g3921
S'swimming'
p5087
tp5088
a(g3921
g5087
S'pool'
p5089
tp5090
a(S'mass'
p5091
g1
g2
tp5092
a(S'fashion'
p5093
g1455
g345
tp5094
a(S'money'
p5095
S'in'
p5096
S'football'
p5097
tp5098
a(S'the'
p5099
S'team'
p5100
S'also'
p5101
tp5102
a(g5052
g5053
S'the'
p5103
tp5104
a(S'through'
p5105
g1863
g1864
tp5106
a(S'which'
p5107
S'we'
p5108
S'have'
p5109
tp5110
a(g1
g1953
S'and'
p5111
tp5112
a(S'trust'
p5113
S'on'
p5114
S'both'
p5115
tp5116
a(g1
S'whom'
p5117
S'he'
p5118
tp5119
a(g1
g62
g3829
tp5120
a(g1352
S'will'
p5121
S'fight'
p5122
tp5123
a(S'people'
p5124
S'told'
p5125
S'me'
p5126
tp5127
a(S'of'
p5128
S'the'
p5129
g2519
tp5130
a(g117
S'significant'
p5131
S'advantage'
p5132
tp5133
a(g4183
g4184
S'is'
p5134
tp5135
a(S'tied'
p5136
S'to'
p5137
g393
tp5138
a(S'wholesale'
p5139
S'discounts'
p5140
g150
tp5141
a(S'from'
p5142
S'this'
p5143
g704
tp5144
a(S'with'
p5145
S'whom'
p5146
g1
tp5147
a(S'while'
p5148
S'in'
p5149
S'the'
p5150
tp5151
a(S'one'
p5152
S'percent'
p5153
S'against'
p5154
tp5155
a(S'removed'
p5156
S'asbestos'
p5157
g150
tp5158
a(S'to'
p5159
S'the'
p5160
S'fore'
p5161
tp5162
a(S'was'
p5163
S'transformed'
p5164
S'into'
p5165
tp5166
a(S'and'
p5167
S'hungary'
p5168
g1461
tp5169
a(S'personal'
p5170
S'problems'
p5171
S'with'
p5172
tp5173
a(S'regional'
p5174
S'levels'
p5175
g150
tp5176
a(S'reconstruction'
p5177
S'in'
p5178
S'1995'
p5179
tp5180
a(g250
S'58'
p5181
S'billion'
p5182
tp5183
a(g1
S'which'
p5184
S'continued'
p5185
tp5186
a(g1
g3579
g3528
tp5187
a(g1920
g2065
g773
tp5188
a(S'have'
p5189
S'to'
p5190
S'learn'
p5191
tp5192
a(S'so'
p5193
g1467
g1468
tp5194
a(S'40'
p5195
S'years'
p5196
S'later'
p5197
tp5198
a(S'of'
p5199
g4581
g4582
tp5200
a(g1538
g1539
S'the'
p5201
tp5202
a(g3701
g426
S'thirds'
p5203
tp5204
a(S'with'
p5205
S'his'
p5206
S'wife'
p5207
tp5208
a(S'targets'
p5209
g3072
g3073
tp5210
a(g5154
g4414
g4415
tp5211
a(g3611
g3612
S'bring'
p5212
tp5213
a(g1
S'to'
p5214
S'avoid'
p5215
tp5216
a(S'notes'
p5217
g2226
g2227
tp5218
a(S'clean'
p5219
S'tile'
p5220
S'in'
p5221
tp5222
a(S'claimed'
p5223
S'that'
p5224
S'he'
p5225
tp5226
a(g1
g3330
g3331
tp5227
a(g1714
g1715
g1
tp5228
a(S'no'
p5229
g3913
g3914
tp5230
a(S'many'
p5231
S'people'
p5232
g1
tp5233
a(g1539
g5201
S'building'
p5234
tp5235
a(S'0.1'
p5236
g2399
g1461
tp5237
a(g1
g4896
g4410
tp5238
a(S'at'
p5239
S'the'
p5240
S'main'
p5241
tp5242
a(g3708
g3709
S'first'
p5243
tp5244
a(S'more'
p5245
S'czechs'
p5246
S'in'
p5247
tp5248
a(g3550
g4605
g2521
tp5249
a(g1
S'this'
p5250
S'figure'
p5251
tp5252
a(S'persuaded'
p5253
S'politicians'
p5254
S'and'
p5255
tp5256
a(S'prague'
p5257
g1
S'\xd1\x81\xd0\xbc\xd0\xb8\xd1\x85\xd0\xbe\xd0\xb2'
p5258
tp5259
a(S'vienna'
p5260
g1788
g1789
tp5261
a(g4773
S'in'
p5262
S'2013'
p5263
tp5264
a(S'hear'
p5265
S'how'
p5266
g385
tp5267
a(S'as'
p5268
S'the'
p5269
S'previous'
p5270
tp5271
a(S'of'
p5272
S'its'
p5273
S'own'
p5274
tp5275
a(g411
g4231
g2993
tp5276
a(g5143
g704
g705
tp5277
a(g3036
g3037
g150
tp5278
a(g5100
g5101
S'had'
p5279
tp5280
a(g2399
g1461
g3469
tp5281
a(S'hand'
p5282
g1
g5217
tp5283
a(g2337
g2338
S'and'
p5284
tp5285
a(S'in'
p5286
S'zwickau'
p5287
g2
tp5288
a(g3957
g3958
S'as'
p5289
tp5290
a(g2026
g2124
g1
tp5291
a(g1935
g117
g2198
tp5292
a(g1
g1122
S'ceausescus'
p5293
tp5294
a(g4735
g1
S'in'
p5295
tp5296
a(S'enough'
p5297
S'money'
p5298
S'for'
p5299
tp5300
a(S'and'
p5301
S'sale'
p5302
S'of'
p5303
tp5304
a(g427
g2311
S'agreement'
p5305
tp5306
a(S'from'
p5307
g3785
g1662
tp5308
a(S'number'
p5309
S'of'
p5310
S'such'
p5311
tp5312
a(g117
S'pile'
p5313
S'of'
p5314
tp5315
a(S'and'
p5316
g4929
g1
tp5317
a(g3743
g3744
g150
tp5318
a(g4960
g1
g454
tp5319
a(S'tougher'
p5320
S'standards'
p5321
g150
tp5322
a(g2541
g2542
S'presented'
p5323
tp5324
a(S'assess'
p5325
S'his'
p5326
S'chances'
p5327
tp5328
a(g2000
g2001
S'\xd0\xbf\xd0\xbe\xd0\xb4\xd0\xb3\xd0\xbe\xd1\x80\xd0\xb8\xd1\x86\xd1\x83'
p5329
tp5330
a(S'buffett'
p5331
S'said'
p5332
g1
tp5333
a(g411
S'then'
p5334
S'you'
p5335
tp5336
a(S'production'
p5337
g5301
g5302
tp5338
a(g1934
g1935
g117
tp5339
a(g426
S'conditioning'
p5340
g150
tp5341
a(S'on'
p5342
S'both'
p5343
S'the'
p5344
tp5345
a(g1458
g1
S'otherwise'
p5346
tp5347
a(S'elections'
p5348
S'in'
p5349
S'the'
p5350
tp5351
a(g117
g2198
g2199
tp5352
a(S'any'
p5353
S'other'
p5354
g1139
tp5355
a(S"'s"
p5356
S'board'
p5357
S'of'
p5358
tp5359
a(g3012
g411
g4231
tp5360
a(g5266
g385
g386
tp5361
a(g3874
g4878
g4879
tp5362
a(g3413
g3414
g4807
tp5363
a(g2860
g2861
S'who'
p5364
tp5365
a(S'thus'
p5366
g1
S'in'
p5367
tp5368
a(S'recorded'
p5369
S'during'
p5370
S'the'
p5371
tp5372
a(S'is'
p5373
S'the'
p5374
g3182
tp5375
a(S'opposition'
p5376
S'leader'
p5377
g1
tp5378
a(S'good'
p5379
S'intentions'
p5380
g1
tp5381
a(g3393
S'the'
p5382
S'relationship'
p5383
tp5384
a(S'in'
p5385
S'1969'
p5386
g150
tp5387
a(g3026
g3027
g4903
tp5388
a(S'emblem'
p5389
S'of'
p5390
S'the'
p5391
tp5392
a(S'to'
p5393
g5265
g5266
tp5394
a(g1
S'to'
p5395
S'communicate'
p5396
tp5397
a(S'annoying'
p5398
S'in'
p5399
S'situations'
p5400
tp5401
a(S'and'
p5402
g5028
g4734
tp5403
a(S'president'
p5404
S'foodwatch'
p5405
g4260
tp5406
a(g4150
g1
g4276
tp5407
a(S'the'
p5408
g3771
g3772
tp5409
a(S'the'
p5410
g3374
g3375
tp5411
a(g2
S'for'
p5412
S'us'
p5413
tp5414
a(S'air'
p5415
g426
g5340
tp5416
a(g3132
g1
g5117
tp5417
a(g3362
g5385
g5386
tp5418
a(S'why'
p5419
g1738
g1739
tp5420
a(S'difficult'
p5421
g4695
g4696
tp5422
a(g4772
g4773
g5262
tp5423
a(g332
g411
g5334
tp5424
a(g2
S'jazz'
p5425
g5091
tp5426
a(g5405
g4260
g2194
tp5427
a(S'the'
p5428
g1955
g810
tp5429
a(g1
S'under'
p5430
S'the'
p5431
tp5432
a(S'in'
p5433
S'iran'
p5434
g150
tp5435
a(S'of'
p5436
g3845
g319
tp5437
a(S'smarter'
p5438
S'planet'
p5439
g150
tp5440
a(g1267
g1268
g2222
tp5441
a(S'original'
p5442
S'information'
p5443
S'to'
p5444
tp5445
a(g5121
g5122
S'for'
p5446
tp5447
a(S'\xd0\xbe\xd0\xbb\xd1\x8c\xd0\xb1\xd1\x80\xd0\xb8\xd1\x85\xd0\xb0'
p5448
g1
S'and'
p5449
tp5450
a(S'and'
p5451
S'yet'
p5452
g62
tp5453
a(S'not'
p5454
S'dare'
p5455
S'to'
p5456
tp5457
a(S'head'
p5458
S'of'
p5459
S'deutsche'
p5460
tp5461
a(g296
g297
g3266
tp5462
a(g215
g5398
g5399
tp5463
a(S'in'
p5464
S'chocolate'
p5465
g150
tp5466
a(g1939
g4251
S"'re"
p5467
tp5468
a(g4075
S'the'
p5469
S'game'
p5470
tp5471
a(S'waist'
p5472
g1
S'to'
p5473
tp5474
a(S'10.7'
p5475
S'billion'
p5476
g150
tp5477
a(g1
g5253
g5254
tp5478
a(S'of'
p5479
S'children'
p5480
S'regularly'
p5481
tp5482
a(S'\xd0\xb7\xd0\xb0\xd0\xbd\xd0\xb8\xd0\xbc\xd0\xb0\xd1\x82\xd0\xb5\xd0\xbb\xd1\x8c\xd0\xbd\xd0\xb0'
p5483
S'and'
p5484
S'sometimes'
p5485
tp5486
a(S'holding'
p5487
g1906
g1907
tp5488
a.