(dp0
S'el'
p1
ccollections
Counter
p2
((dp3
tp4
Rp5
sS'en'
p6
g2
((dp7
tp8
Rp9
sS'zh'
p10
g2
((dp11
tp12
Rp13
sS'vi'
p14
g2
((dp15
tp16
Rp17
sS'ca'
p18
g2
((dp19
tp20
Rp21
sS'it'
p22
g2
((dp23
tp24
Rp25
sS'ar'
p26
g2
((dp27
tp28
Rp29
sS'cs'
p30
g2
((dp31
tp32
Rp33
sS'et'
p34
g2
((dp35
tp36
Rp37
sS'az'
p38
g2
((dp39
tp40
Rp41
sS'id'
p42
g2
((dp43
tp44
Rp45
sS'es'
p46
g2
((dp47
tp48
Rp49
sS'ru'
p50
g2
((dp51
tp52
Rp53
sS'gl'
p54
g2
((dp55
tp56
Rp57
sS'nl'
p58
g2
((dp59
tp60
Rp61
sS'pt'
p62
g2
((dp63
tp64
Rp65
sS'no'
p66
g2
((dp67
tp68
Rp69
sS'tr'
p70
g2
((dp71
tp72
Rp73
sS'lt'
p74
g2
((dp75
tp76
Rp77
sS'th'
p78
g2
((dp79
tp80
Rp81
sS'ro'
p82
g2
((dp83
tp84
Rp85
sS'pl'
p86
g2
((dp87
tp88
Rp89
sS'ta'
p90
g2
((dp91
tp92
Rp93
sS'fr'
p94
g2
((dp95
tp96
Rp97
sS'bg'
p98
g2
((dp99
tp100
Rp101
sS'ms'
p102
g2
((dp103
tp104
Rp105
sS'hr'
p106
g2
((dp107
tp108
Rp109
sS'bn'
p110
g2
((dp111
tp112
Rp113
sS'de'
p114
g2
((dp115
tp116
Rp117
sS'hu'
p118
g2
((dp119
tp120
Rp121
sS'fa'
p122
g2
((dp123
tp124
Rp125
sS'hi'
p126
g2
((dp127
tp128
Rp129
sS'fi'
p130
g2
((dp131
tp132
Rp133
sS'da'
p134
g2
((dp135
tp136
Rp137
sS'ja'
p138
g2
((dp139
tp140
Rp141
sS'he'
p142
g2
((dp143
tp144
Rp145
sS'ka'
p146
g2
((dp147
tp148
Rp149
sS'te'
p150
g2
((dp151
tp152
Rp153
sS'ko'
p154
g2
((dp155
tp156
Rp157
sS'sv'
p158
g2
((dp159
tp160
Rp161
sS'mk'
p162
g2
((dp163
tp164
Rp165
sS'sk'
p166
g2
((dp167
tp168
Rp169
sS'uk'
p170
g2
((dp171
tp172
Rp173
sS'sl'
p174
g2
((dp175
tp176
Rp177
s.