(lp0
(S'the'
p1
tp2
a(S','
p3
tp4
a(S'.'
p5
tp6
a(S'of'
p7
tp8
a(S'in'
p9
tp10
a(S'and'
p11
tp12
a(S'to'
p13
tp14
a(S'"'
p15
tp16
a(S'a'
p17
tp18
a(S'that'
p19
tp20
a(S'is'
p21
tp22
a(S'on'
p23
tp24
a(S'for'
p25
tp26
a(S'with'
p27
tp28
a(S'-'
p29
tp30
a(S'he'
p31
tp32
a(S'not'
p33
tp34
a(S'was'
p35
tp36
a(S'it'
p37
tp38
a(S'as'
p39
tp40
a(S'from'
p41
tp42
a(S'will'
p43
tp44
a(S'you'
p45
tp46
a(S';'
p47
tp48
a(S'which'
p49
tp50
a(S'this'
p51
tp52
a(S'have'
p53
tp54
a(S'his'
p55
tp56
a(S'be'
p57
tp58
a(S'i'
p59
tp60
a(S'at'
p61
tp62
a(S'more'
p63
tp64
a(S'bank'
p65
tp66
a(S"'s"
p67
tp68
a(S'has'
p69
tp70
a(S'said'
p71
tp72
a(S'one'
p73
tp74
a(S'czech'
p75
tp76
a(S'we'
p77
tp78
a(S'but'
p79
tp80
a(S'their'
p81
tp82
a(S'if'
p83
tp84
a(S'than'
p85
tp86
a(S'or'
p87
tp88
a(S'ibm'
p89
tp90
a(S'about'
p91
tp92
a(S'('
p93
tp94
a(S')'
p95
tp96
a(S'so'
p97
tp98
a(S'are'
p99
tp100
a(S'all'
p101
tp102
a(S'can'
p103
tp104
a(S'were'
p105
tp106
a(S'after'
p107
tp108
a(S'also'
p109
tp110
a(S'do'
p111
tp112
a(S'they'
p113
tp114
a(S'its'
p115
tp116
a(S'time'
p117
tp118
a(S'football'
p119
tp120
a(S'ubs'
p121
tp122
a(S"n't"
p123
tp124
a(S'an'
p125
tp126
a(S'banks'
p127
tp128
a(S'years'
p129
tp130
a(S'both'
p131
tp132
a(S'no'
p133
tp134
a(S'had'
p135
tp136
a(S'some'
p137
tp138
a(S'by'
p139
tp140
a(S'would'
p141
tp142
a(S'people'
p143
tp144
a(S'who'
p145
tp146
a(S'work'
p147
tp148
a(S'other'
p149
tp150
a(S'game'
p151
tp152
a(S'first'
p153
tp154
a(S'only'
p155
tp156
a(S'billion'
p157
tp158
a(S'now'
p159
tp160
a(S'europe'
p161
tp162
a(S'how'
p163
tp164
a(S'company'
p165
tp166
a(S'swiss'
p167
tp168
a(S'two'
p169
tp170
a(S'where'
p171
tp172
a(S'she'
p173
tp174
a(S'world'
p175
tp176
a(S'second'
p177
tp178
a(S'number'
p179
tp180
a(S'new'
p181
tp182
a(S'another'
p183
tp184
a(S'most'
p185
tp186
a(S'countries'
p187
tp188
a(S'example'
p189
tp190
a(S':'
p191
tp192
a(S'your'
p193
tp194
a(S'deutsche'
p195
tp196
a(S'many'
p197
tp198
a(S'turkish'
p199
tp200
a(S'because'
p201
tp202
a(S'germany'
p203
tp204
a(S'what'
p205
tp206
a(S'candidate'
p207
tp208
a(S'year'
p209
tp210
a(S'her'
p211
tp212
a(S'children'
p213
tp214
a(S'when'
p215
tp216
a(S'them'
p217
tp218
a(S'president'
p219
tp220
a(S'%'
p221
tp222
a(S'says'
p223
tp224
a(S'could'
p225
tp226
a(S'before'
p227
tp228
a(S'business'
p229
tp230
a(S'us'
p231
tp232
a(S'building'
p233
tp234
a(S'\xd0\xbf\xd0\xb5\xd0\xbb\xd1\x8c\xd1\x82\xd0\xb0'
p235
tp236
a(S'percent'
p237
tp238
a(S'investment'
p239
tp240
a(S'such'
p241
tp242
a(S'travel'
p243
tp244
a(S'german'
p245
tp246
a(S'team'
p247
tp248
a(S'few'
p249
tp250
a(S'see'
p251
tp252
a(S'money'
p253
tp254
a(S'need'
p255
tp256
a(S'should'
p257
tp258
a(S'$'
p259
tp260
a(S'director'
p261
tp262
a(S'event'
p263
tp264
a(S'fact'
p265
tp266
a(S'future'
p267
tp268
a(S'swimming'
p269
tp270
a(S'republic'
p271
tp272
a(S'\xd0\xbf\xd0\xb0\xd1\x86\xd0\xbb\xd0\xb8\xd0\xba'
p273
tp274
a(S'half'
p275
tp276
a(S'race'
p277
tp278
a(S'association'
p279
tp280
a(S'last'
p281
tp282
a(S'very'
p283
tp284
a(S'again'
p285
tp286
a(S'been'
p287
tp288
a(S'main'
p289
tp290
a(S'during'
p291
tp292
a(S'history'
p293
tp294
a(S'known'
p295
tp296
a(S'since'
p297
tp298
a(S'good'
p299
tp300
a(S'too'
p301
tp302
a(S'around'
p303
tp304
a(S'while'
p305
tp306
a(S'up'
p307
tp308
a(S'long'
p309
tp310
a(S'our'
p311
tp312
a(S'food'
p313
tp314
a(S'want'
p315
tp316
a(S'women'
p317
tp318
a(S'\xd1\x80\xd0\xb0\xd0\xb9\xd1\x85\xd0\xbb'
p319
tp320
a(S'museum'
p321
tp322
a(S'like'
p323
tp324
a(S'may'
p325
tp326
a(S'situation'
p327
tp328
a(S'obesity'
p329
tp330
a(S'board'
p331
tp332
a(S'pool'
p333
tp334
a(S'crisis'
p335
tp336
a(S"'"
p337
tp338
a(S'switzerland'
p339
tp340
a(S'just'
p341
tp342
a(S'became'
p343
tp344
a(S'there'
p345
tp346
a(S'become'
p347
tp348
a(S'meeting'
p349
tp350
a(S'per'
p351
tp352
a(S'based'
p353
tp354
a(S'management'
p355
tp356
a(S'even'
p357
tp358
a(S'large'
p359
tp360
a(S'my'
p361
tp362
a(S'rules'
p363
tp364
a(S'head'
p365
tp366
a(S'european'
p367
tp368
a(S'does'
p369
tp370
a(S'well'
p371
tp372
a(S'third'
p373
tp374
a(S'previous'
p375
tp376
a(S'home'
p377
tp378
a(S'general'
p379
tp380
a(S'place'
p381
tp382
a(S'pools'
p383
tp384
a(S'according'
p385
tp386
a(S'control'
p387
tp388
a(S'already'
p389
tp390
a(S'five'
p391
tp392
a(S'three'
p393
tp394
a(S'country'
p395
tp396
a(S'against'
p397
tp398
a(S'part'
p399
tp400
a(S'clear'
p401
tp402
a(S'into'
p403
tp404
a(S'financial'
p405
tp406
a(S'?'
p407
tp408
a(S'september'
p409
tp410
a(S'\xd0\xbc\xd0\xb5\xd0\xb4\xd0\xb5\xd1\x80'
p411
tp412
a(S'much'
p413
tp414
a(S'player'
p415
tp416
a(S'national'
p417
tp418
a(S'lost'
p419
tp420
a(S'great'
p421
tp422
a(S'often'
p423
tp424
a(S'me'
p425
tp426
a(S'own'
p427
tp428
a(S'happy'
p429
tp430
a(S'day'
p431
tp432
a(S'strategy'
p433
tp434
a(S'without'
p435
tp436
a(S'make'
p437
tp438
a(S'market'
p439
tp440
a(S'shares'
p441
tp442
a(S'level'
p443
tp444
a(S'then'
p445
tp446
a(S'out'
p447
tp448
a(S'water'
p449
tp450
a(S'program'
p451
tp452
a(S'take'
p453
tp454
a(S'ago'
p455
tp456
a(S'did'
p457
tp458
a(S'him'
p459
tp460
a(S'match'
p461
tp462
a(S'things'
p463
tp464
a(S'support'
p465
tp466
a(S'between'
p467
tp468
a(S'why'
p469
tp470
a(S'find'
p471
tp472
a(S'yet'
p473
tp474
a(S'companies'
p475
tp476
a(S'means'
p477
tp478
a(S'government'
p479
tp480
a(S'almost'
p481
tp482
a(S'say'
p483
tp484
a(S'best'
p485
tp486
a(S'students'
p487
tp488
a(S'largest'
p489
tp490
a(S'end'
p491
tp492
a(S'international'
p493
tp494
a(S'price'
p495
tp496
a(S'candidates'
p497
tp498
a(S'someone'
p499
tp500
a(S'prague'
p501
tp502
a(S'months'
p503
tp504
a(S'enough'
p505
tp506
a(S'next'
p507
tp508
a(S'series'
p509
tp510
a(S'stylist'
p511
tp512
a(S'libya'
p513
tp514
a(S'watson'
p515
tp516
a(S'hand'
p517
tp518
a(S'image'
p519
tp520
a(S'banking'
p521
tp522
a(S'quarter'
p523
tp524
a(S'believe'
p525
tp526
a(S'however'
p527
tp528
a(S'exhibition'
p529
tp530
a(S'must'
p531
tp532
a(S'nuclear'
p533
tp534
a(S'know'
p535
tp536
a(S'experience'
p537
tp538
a(S'executive'
p539
tp540
a(S'cent'
p541
tp542
a(S'services'
p543
tp544
a(S'vienna'
p545
tp546
a(S'course'
p547
tp548
a(S'leave'
p549
tp550
a(S'directors'
p551
tp552
a(S'chairman'
p553
tp554
a(S'several'
p555
tp556
a(S'continue'
p557
tp558
a(S'committee'
p559
tp560
a(S'avoid'
p561
tp562
a(S'agreement'
p563
tp564
a(S'still'
p565
tp566
a(S'study'
p567
tp568
a(S'whom'
p569
tp570
a(S'driving'
p571
tp572
a(S'order'
p573
tp574
a(S'fight'
p575
tp576
a(S'something'
p577
tp578
a(S'amount'
p579
tp580
a(S'individual'
p581
tp582
a(S'life'
p583
tp584
a(S'point'
p585
tp586
a(S'past'
p587
tp588
a(S'get'
p589
tp590
a(S'expect'
p591
tp592
a(S'go'
p593
tp594
a(S'down'
p595
tp596
a(S'far'
p597
tp598
a(S'side'
p599
tp600
a(S'technology'
p601
tp602
a(S'million'
p603
tp604
a(S'same'
p605
tp606
a(S'information'
p607
tp608
a(S'different'
p609
tp610
a(S"'re"
p611
tp612
a(S'bahn'
p613
tp614
a(S'fa\xc4\x8dr'
p615
tp616
a(S'hungary'
p617
tp618
a(S'13'
p619
tp620
a(S'anniversary'
p621
tp622
a(S'jagr'
p623
tp624
a(S'black'
p625
tp626
a(S'france'
p627
tp628
a(S'tuesday'
p629
tp630
a(S'buffett'
p631
tp632
a(S'west'
p633
tp634
a(S'group'
p635
tp636
a(S'style'
p637
tp638
a(S'always'
p639
tp640
a(S'believes'
p641
tp642
a(S'statistical'
p643
tp644
a(S'left'
p645
tp646
a(S'miroslav'
p647
tp648
a(S'offers'
p649
tp650
a(S'case'
p651
tp652
a(S'czechs'
p653
tp654
a(S'austria'
p655
tp656
a(S'although'
p657
tp658
a(S'result'
p659
tp660
a(S'quite'
p661
tp662
a(S'along'
p663
tp664
a(S'name'
p665
tp666
a(S'speed'
p667
tp668
a(S'young'
p669
tp670
a(S'law'
p671
tp672
a(S'baths'
p673
tp674
a(S'real'
p675
tp676
a(S'used'
p677
tp678
a(S'small'
p679
tp680
a(S'less'
p681
tp682
a(S'following'
p683
tp684
a(S'public'
p685
tp686
a(S'data'
p687
tp688
a(S'finally'
p689
tp690
a(S'every'
p691
tp692
a(S'helped'
p693
tp694
a(S'trains'
p695
tp696
a(S'high'
p697
tp698
a(S'important'
p699
tp700
a(S'open'
p701
tp702
a(S'doubt'
p703
tp704
a(S'direction'
p705
tp706
a(S'beginning'
p707
tp708
a(S'office'
p709
tp710
a(S'through'
p711
tp712
a(S'significant'
p713
tp714
a(S'announced'
p715
tp716
a(S'tourists'
p717
tp718
a(S'added'
p719
tp720
a(S'together'
p721
tp722
a(S'thus'
p723
tp724
a(S'man'
p725
tp726
a(S'think'
p727
tp728
a(S'increased'
p729
tp730
a(S'research'
p731
tp732
a(S'experienced'
p733
tp734
a(S'here'
p735
tp736
a(S'led'
p737
tp738
a(S'goal'
p739
tp740
a(S'over'
p741
tp742
a(S'each'
p743
tp744
a(S'advantage'
p745
tp746
a(S'big'
p747
tp748
a(S'states'
p749
tp750
a(S'risk'
p751
tp752
a(S'made'
p753
tp754
a(S'dishes'
p755
tp756
a(S'use'
p757
tp758
a(S'technical'
p759
tp760
a(S'works'
p761
tp762
a(S'problem'
p763
tp764
a(S'promised'
p765
tp766
a(S'youth'
p767
tp768
a(S'stock'
p769
tp770
a(S'until'
p771
tp772
a(S'elected'
p773
tp774
a(S'pilsen'
p775
tp776
a(S'comes'
p777
tp778
a(S'later'
p779
tp780
a(S'clearly'
p781
tp782
a(S'found'
p783
tp784
a(S'figure'
p785
tp786
a(S'election'
p787
tp788
a(S'suddenly'
p789
tp790
a(S'longer'
p791
tp792
a(S'back'
p793
tp794
a(S'currently'
p795
tp796
a(S'rates'
p797
tp798
a(S'allowed'
p799
tp800
a(S'2008'
p801
tp802
a(S'move'
p803
tp804
a(S'addition'
p805
tp806
a(S'area'
p807
tp808
a(S'university'
p809
tp810
a(S'days'
p811
tp812
a(S'plan'
p813
tp814
a(S'lecture'
p815
tp816
a(S'reported'
p817
tp818
a(S'american'
p819
tp820
a(S'pay'
p821
tp822
a(S'fashion'
p823
tp824
a(S'central'
p825
tp826
a(S'iran'
p827
tp828
a(S'least'
p829
tp830
a(S'original'
p831
tp832
a(S'thomas'
p833
tp834
a(S'round'
p835
tp836
a(S'political'
p837
tp838
a(S'prices'
p839
tp840
a(S'agencies'
p841
tp842
a(S'2007'
p843
tp844
a(S'\xd1\x80\xd0\xb8\xd1\x85\xd1\x82\xd0\xb0\xd1\x80\xd0\xb6'
p845
tp846
a(S'husband'
p847
tp848
a(S'six'
p849
tp850
a(S'fifa'
p851
tp852
a(S'\xd0\xb2\xd0\xb8\xd1\x86\xd0\xb5\xd0\xbd\xd0\xbe\xd0\xb2\xd0\xb0'
p853
tp854
a(S'\xd0\xb4\xd0\xb0\xd1\x80\xd0\xb8\xd0\xbd\xd0\xb0'
p855
tp856
a(S'founder'
p857
tp858
a(S'czechoslovakia'
p859
tp860
a(S'league'
p861
tp862
a(S'wife'
p863
tp864
a(S'uefa'
p865
tp866
a(S'zurich'
p867
tp868
a(S'\xd0\xb3\xd0\xb0\xd1\x88\xd0\xb5\xd0\xba\xd0\xb0'
p869
tp870
a(S'\xd0\xbf\xd0\xb5\xd0\xbb\xd1\x8c\xd1\x82\xd0\xb5'
p871
tp872
a(S'private'
p873
tp874
a(S'200'
p875
tp876
a(S'presidential'
p877
tp878
a(S'revolution'
p879
tp880
a(S'2000'
p881
tp882
a(S'education'
p883
tp884
a(S'delegates'
p885
tp886
a(S'j.'
p887
tp888
a(S'given'
p889
tp890
a(S'november'
p891
tp892
a(S'palace'
p893
tp894
a(S'lean'
p895
tp896
a(S'socialist'
p897
tp898
a(S'winter'
p899
tp900
a(S'recently'
p901
tp902
a(S'francs'
p903
tp904
a(S'pavilion'
p905
tp906
a(S'professional'
p907
tp908
a(S'worth'
p909
tp910
a(S'difficult'
p911
tp912
a(S'giant'
p913
tp914
a(S'sometimes'
p915
tp916
a(S'empty'
p917
tp918
a(S'improve'
p919
tp920
a(S'securities'
p921
tp922
a(S'investments'
p923
tp924
a(S'despite'
p925
tp926
a(S'tymoshenko'
p927
tp928
a(S'going'
p929
tp930
a(S'industry'
p931
tp932
a(S'bought'
p933
tp934
a(S'city'
p935
tp936
a(S'ready'
p937
tp938
a(S'understand'
p939
tp940
a(S'music'
p941
tp942
a(S'united'
p943
tp944
a(S'question'
p945
tp946
a(S'little'
p947
tp948
a(S'moment'
p949
tp950
a(S'changes'
p951
tp952
a(S'decided'
p953
tp954
a(S'eu'
p955
tp956
a(S'computer'
p957
tp958
a(S'turks'
p959
tp960
a(S'former'
p961
tp962
a(S'clean'
p963
tp964
a(S'trade'
p965
tp966
a(S'currency'
p967
tp968
a(S'hundred'
p969
tp970
a(S'club'
p971
tp972
a(S'compared'
p973
tp974
a(S'ambassador'
p975
tp976
a(S'start'
p977
tp978
a(S'favorite'
p979
tp980
a(S'early'
p981
tp982
a(S'expected'
p983
tp984
a(S'opponent'
p985
tp986
a(S'house'
p987
tp988
a(S'credit'
p989
tp990
a(S'attitude'
p991
tp992
a(S'old'
p993
tp994
a(S'certain'
p995
tp996
a(S'especially'
p997
tp998
a(S'relationship'
p999
tp1000
a(S'eastern'
p1001
tp1002
a(S'help'
p1003
tp1004
a(S'results'
p1005
tp1006
a(S'software'
p1007
tp1008
a(S'closed'
p1009
tp1010
a(S'model'
p1011
tp1012
a(S'thing'
p1013
tp1014
a(S'began'
p1015
tp1016
a(S'clothing'
p1017
tp1018
a(S'elections'
p1019
tp1020
a(S'received'
p1021
tp1022
a(S'funds'
p1023
tp1024
a(S'these'
p1025
tp1026
a(S'environment'
p1027
tp1028
a(S'mostly'
p1029
tp1030
a(S'joseph'
p1031
tp1032
a(S'designed'
p1033
tp1034
a(S'powerful'
p1035
tp1036
a(S'return'
p1037
tp1038
a(S'sports'
p1039
tp1040
a(S'men'
p1041
tp1042
a(S'state'
p1043
tp1044
a(S'highest'
p1045
tp1046
a(S'whose'
p1047
tp1048
a(S'institute'
p1049
tp1050
a(S'joined'
p1051
tp1052
a(S'idea'
p1053
tp1054
a(S'any'
p1055
tp1056
a(S'way'
p1057
tp1058
a(S'organization'
p1059
tp1060
a(S'growth'
p1061
tp1062
a(S'share'
p1063
tp1064
a(S'invested'
p1065
tp1066
a(S'opinion'
p1067
tp1068
a(S'net'
p1069
tp1070
a(S'able'
p1071
tp1072
a(S'further'
p1073
tp1074
a(S'basis'
p1075
tp1076
a(S'himself'
p1077
tp1078
a(S'rather'
p1079
tp1080
a(S'family'
p1081
tp1082
a(S'once'
p1083
tp1084
a(S'hard'
p1085
tp1086
a(S'attention'
p1087
tp1088
a(S'success'
p1089
tp1090
a(S'anti'
p1091
tp1092
a(S'right'
p1093
tp1094
a(S'machines'
p1095
tp1096
a(S'came'
p1097
tp1098
a(S'assembly'
p1099
tp1100
a(S'figures'
p1101
tp1102
a(S'sport'
p1103
tp1104
a(S'coincidence'
p1105
tp1106
a(S'worse'
p1107
tp1108
a(S'current'
p1109
tp1110
a(S'create'
p1111
tp1112
a(S"'m"
p1113
tp1114
a(S'products'
p1115
tp1116
a(S'record'
p1117
tp1118
a(S'learn'
p1119
tp1120
a(S'called'
p1121
tp1122
a(S'unlikely'
p1123
tp1124
a(S'total'
p1125
tp1126
a(S'period'
p1127
tp1128
a(S'biggest'
p1129
tp1130
a(S'power'
p1131
tp1132
a(S'held'
p1133
tp1134
a(S'wear'
p1135
tp1136
a(S'suffer'
p1137
tp1138
a(S'western'
p1139
tp1140
a(S'short'
p1141
tp1142
a(S'thermal'
p1143
tp1144
a(S'better'
p1145
tp1146
a(S'field'
p1147
tp1148
a(S'attacks'
p1149
tp1150
a(S'foreign'
p1151
tp1152
a(S'--'
p1153
tp1154
a(S'media'
p1155
tp1156
a(S'standards'
p1157
tp1158
a(S'income'
p1159
tp1160
a(S'mainly'
p1161
tp1162
a(S'body'
p1163
tp1164
a(S'moreover'
p1165
tp1166
a(S'politicians'
p1167
tp1168
a(S'among'
p1169
tp1170
a(S'really'
p1171
tp1172
a(S'remain'
p1173
tp1174
a(S'regular'
p1175
tp1176
a(S'try'
p1177
tp1178
a(S'include'
p1179
tp1180
a(S'promises'
p1181
tp1182
a(S'grew'
p1183
tp1184
a(S'modern'
p1185
tp1186
a(S'willing'
p1187
tp1188
a(S'problems'
p1189
tp1190
a(S'itself'
p1191
tp1192
a(S'!'
p1193
tp1194
a(S'title'
p1195
tp1196
a(S'full'
p1197
tp1198
a(S'sweet'
p1199
tp1200
a(S'am'
p1201
tp1202
a(S'took'
p1203
tp1204
a(S'tomas'
p1205
tp1206
a(S'look'
p1207
tp1208
a(S'players'
p1209
tp1210
a(S'resigned'
p1211
tp1212
a(S'america'
p1213
tp1214
a(S'perfect'
p1215
tp1216
a(S'whatever'
p1217
tp1218
a(S'participants'
p1219
tp1220
a(S'commerce'
p1221
tp1222
a(S'clothes'
p1223
tp1224
a(S'transfer'
p1225
tp1226
a(S'demand'
p1227
tp1228
a(S'bonds'
p1229
tp1230
a(S'woman'
p1231
tp1232
a(S'charles'
p1233
tp1234
a(S'news'
p1235
tp1236
a(S'internet'
p1237
tp1238
a(S'cooperation'
p1239
tp1240
a(S'vacation'
p1241
tp1242
a(S'develop'
p1243
tp1244
a(S'mode'
p1245
tp1246
a(S'please'
p1247
tp1248
a(S'universal'
p1249
tp1250
a(S'levels'
p1251
tp1252
a(S'trend'
p1253
tp1254
a(S'bond'
p1255
tp1256
a(S'under'
p1257
tp1258
a(S'investigation'
p1259
tp1260
a(S'hardware'
p1261
tp1262
a(S'\xd1\x80\xd0\xb8\xd1\x85\xd1\x82\xd0\xb0\xd1\x80\xd0\xb6\xd0\xbe\xd0\xb2\xd0\xb0'
p1263
tp1264
a(S'\xd0\xb1\xd0\xbe\xd0\xb4\xd0\xb5'
p1265
tp1266
a(S'career'
p1267
tp1268
a(S'berlin'
p1269
tp1270
a(S'capital'
p1271
tp1272
a(S'\xd0\xbc\xd0\xb5\xd0\xbb\xd0\xbb\xd1\x8c\xd0\xbd\xd0\xb5'
p1273
tp1274
a(S'forward'
p1275
tp1276
a(S'reconstruction'
p1277
tp1278
a(S'sea'
p1279
tp1280
a(S'author'
p1281
tp1282
a(S'\xd0\xbe\xd1\x82\xd0\xbc\xd0\xb5\xd0\xbd'
p1283
tp1284
a(S'imb'
p1285
tp1286
a(S'bag'
p1287
tp1288
a(S'romania'
p1289
tp1290
a(S'\xd1\x80\xd0\xb0\xd0\xb9\xd1\x85\xd0\xbb\xd0\xbe\xd0\xbc'
p1291
tp1292
a(S'walls'
p1293
tp1294
a(S'\xd0\xbf\xd1\x80\xd0\xb0\xd0\xb2\xd0\xbe\xd1\x8d\xd0\xba\xd1\x81\xd1\x82\xd1\x80\xd0\xb5\xd0\xbc\xd0\xb8\xd1\x81\xd1\x82\xd1\x81\xd0\xba\xd0\xb8\xd1\x85'
p1295
tp1296
a(S'factors'
p1297
tp1298
a(S'velvet'
p1299
tp1300
a(S'seven'
p1301
tp1302
a(S'microsoft'
p1303
tp1304
a(S'occupation'
p1305
tp1306
a(S'vice'
p1307
tp1308
a(S'owner'
p1309
tp1310
a(S'regional'
p1311
tp1312
a(S'\xd0\xbf\xd0\xb5\xd0\xbb\xd1\x8c\xd1\x82\xd0\xbe\xd0\xb9'
p1313
tp1314
a(S'reputation'
p1315
tp1316
a(S'greek'
p1317
tp1318
a(S'\xd0\xbe\xd1\x81\xd0\xbf\xd0\xb5\xd0\xbb\xd1\x8c'
p1319
tp1320
a(S'poland'
p1321
tp1322
a(S'architecture'
p1323
tp1324
a(S'rome'
p1325
tp1326
a(S'\xd0\xb9\xd0\xb8\xd0\xbd\xd0\xb4\xd1\x80\xd0\xb6\xd0\xb8\xd1\x85\xd0\xbe\xd0\xbc'
p1327
tp1328
a(S'15'
p1329
tp1330
a(S'germans'
p1331
tp1332
a(S'\xd0\xb0\xd0\xba\xd0\xba\xd0\xb5\xd1\x80\xd0\xbc\xd0\xb0\xd0\xbd\xd0\xbd\xd0\xb0'
p1333
tp1334
a(S'\xd0\xb7\xd0\xbe\xd0\xbb\xd0\xb8\xd0\xbd\xd0\xb3\xd0\xb5\xd0\xbd\xd0\xb5'
p1335
tp1336
a(S'ice'
p1337
tp1338
a(S'0.1'
p1339
tp1340
a(S'week'
p1341
tp1342
a(S'israel'
p1343
tp1344
a(S'45'
p1345
tp1346
a(S'1989'
p1347
tp1348
a(S'\xd0\xbf\xd0\xb5\xd0\xbf\xd0\xb0'
p1349
tp1350
a(S'50th'
p1351
tp1352
a(S'brussels'
p1353
tp1354
a(S'festa'
p1355
tp1356
a(S'italy'
p1357
tp1358
a(S'opposite'
p1359
tp1360
a(S'17'
p1361
tp1362
a(S'1958'
p1363
tp1364
a(S'\xd0\xbf\xd0\xb0\xd1\x86\xd0\xbb\xd0\xb8\xd0\xba\xd0\xb0'
p1365
tp1366
a(S'mario'
p1367
tp1368
a(S'bulgaria'
p1369
tp1370
a(S'partner'
p1371
tp1372
a(S'march'
p1373
tp1374
a(S'nfs'
p1375
tp1376
a(S'2006'
p1377
tp1378
a(S'collector'
p1379
tp1380
a(S'waist'
p1381
tp1382
a(S'police'
p1383
tp1384
a(S'snow'
p1385
tp1386
a(S'glass'
p1387
tp1388
a(S'window'
p1389
tp1390
a(S'smarter'
p1391
tp1392
a(S'encourage'
p1393
tp1394
a(S'negative'
p1395
tp1396
a(S'charter'
p1397
tp1398
a(S'computers'
p1399
tp1400
a(S'winner'
p1401
tp1402
a(S'article'
p1403
tp1404
a(S'gap'
p1405
tp1406
a(S'festival'
p1407
tp1408
a(S'athens'
p1409
tp1410
a(S'perfectly'
p1411
tp1412
a(S'unity'
p1413
tp1414
a(S'reached'
p1415
tp1416
a(S'wave'
p1417
tp1418
a(S'involved'
p1419
tp1420
a(S'paid'
p1421
tp1422
a(S'winners'
p1423
tp1424
a(S'9'
p1425
tp1426
a(S'else'
p1427
tp1428
a(S'post'
p1429
tp1430
a(S'options'
p1431
tp1432
a(S'palmisano'
p1433
tp1434
a(S'member'
p1435
tp1436
a(S'development'
p1437
tp1438
a(S'claims'
p1439
tp1440
a(S'report'
p1441
tp1442
a(S'struggle'
p1443
tp1444
a(S'soccer'
p1445
tp1446
a(S'worked'
p1447
tp1448
a(S'regulator'
p1449
tp1450
a(S'deal'
p1451
tp1452
a(S'bridge'
p1453
tp1454
a(S'40'
p1455
tp1456
a(S'network'
p1457
tp1458
a(S'newspaper'
p1459
tp1460
a(S'budget'
p1461
tp1462
a(S'entire'
p1463
tp1464
a(S'stylists'
p1465
tp1466
a(S'simple'
p1467
tp1468
a(S'ca'
p1469
tp1470
a(S'production'
p1471
tp1472
a(S'thanks'
p1473
tp1474
a(S'process'
p1475
tp1476
a(S'stunning'
p1477
tp1478
a(S'trying'
p1479
tp1480
a(S'outdoor'
p1481
tp1482
a(S'criticism'
p1483
tp1484
a(S'confirmed'
p1485
tp1486
a(S'available'
p1487
tp1488
a(S'art'
p1489
tp1490
a(S'magazines'
p1491
tp1492
a(S'speculation'
p1493
tp1494
a(S'architect'
p1495
tp1496
a(S'recession'
p1497
tp1498
a(S'grow'
p1499
tp1500
a(S'citizens'
p1501
tp1502
a(S'communicate'
p1503
tp1504
a(S'though'
p1505
tp1506
a(S'wants'
p1507
tp1508
a(S'gdp'
p1509
tp1510
a(S'recommendations'
p1511
tp1512
a(S'meetings'
p1513
tp1514
a(S'school'
p1515
tp1516
a(S'allows'
p1517
tp1518
a(S'steam'
p1519
tp1520
a(S'condition'
p1521
tp1522
a(S'iris'
p1523
tp1524
a(S'economic'
p1525
tp1526
a(S'investors'
p1527
tp1528
a(S'summer'
p1529
tp1530
a(S'lose'
p1531
tp1532
a(S'expresses'
p1533
tp1534
a(S'off'
p1535
tp1536
a(S'reed'
p1537
tp1538
a(S'taxes'
p1539
tp1540
a(S'flight'
p1541
tp1542
a(S'healthy'
p1543
tp1544
a(S'subsequent'
p1545
tp1546
a(S'meet'
p1547
tp1548
a(S'vaclav'
p1549
tp1550
a(S'instead'
p1551
tp1552
a(S'consulting'
p1553
tp1554
a(S'brought'
p1555
tp1556
a(S'losses'
p1557
tp1558
a(S'learned'
p1559
tp1560
a(S'type'
p1561
tp1562
a(S'myself'
p1563
tp1564
a(S'flights'
p1565
tp1566
a(S'dress'
p1567
tp1568
a(S'buy'
p1569
tp1570
a(S'smell'
p1571
tp1572
a(S'managed'
p1573
tp1574
a(S'forms'
p1575
tp1576
a(S'change'
p1577
tp1578
a(S'broader'
p1579
tp1580
a(S'ask'
p1581
tp1582
a(S'attack'
p1583
tp1584
a(S'betting'
p1585
tp1586
a(S'press'
p1587
tp1588
a(S'magazine'
p1589
tp1590
a(S'behind'
p1591
tp1592
a(S'whole'
p1593
tp1594
a(S'axis'
p1595
tp1596
a(S'major'
p1597
tp1598
a(S'etc.'
p1599
tp1600
a(S'preliminary'
p1601
tp1602
a(S'secret'
p1603
tp1604
a(S'unreliable'
p1605
tp1606
a(S'give'
p1607
tp1608
a(S'breakfast'
p1609
tp1610
a(S'differently'
p1611
tp1612
a(S'fool'
p1613
tp1614
a(S'wins'
p1615
tp1616
a(S'concept'
p1617
tp1618
a(S'championship'
p1619
tp1620
a(S'annoying'
p1621
tp1622
a(S'discussed'
p1623
tp1624
a(S'regime'
p1625
tp1626
a(S'insists'
p1627
tp1628
a(S'games'
p1629
tp1630
a(S'told'
p1631
tp1632
a(S'faculty'
p1633
tp1634
a(S'normal'
p1635
tp1636
a(S'businessman'
p1637
tp1638
a(S'possible'
p1639
tp1640
a(S'otherwise'
p1641
tp1642
a(S'i.e.'
p1643
tp1644
a(S'today'
p1645
tp1646
a(S'eventually'
p1647
tp1648
a(S'come'
p1649
tp1650
a(S'nothing'
p1651
tp1652
a(S'human'
p1653
tp1654
a(S'amazing'
p1655
tp1656
a(S'won'
p1657
tp1658
a(S'happening'
p1659
tp1660
a(S'overall'
p1661
tp1662
a(S'either'
p1663
tp1664
a(S'visited'
p1665
tp1666
a(S'shows'
p1667
tp1668
a(S'suitable'
p1669
tp1670
a(S'foodwatch'
p1671
tp1672
a(S'institutions'
p1673
tp1674
a(S'council'
p1675
tp1676
a(S'nevertheless'
p1677
tp1678
a(S'controversial'
p1679
tp1680
a(S'begin'
p1681
tp1682
a(S'founded'
p1683
tp1684
a(S'ceilings'
p1685
tp1686
a(S'goes'
p1687
tp1688
a(S'rival'
p1689
tp1690
a(S're'
p1691
tp1692
a(S'worn'
p1693
tp1694
a(S'consecutive'
p1695
tp1696
a(S'areas'
p1697
tp1698
a(S'participation'
p1699
tp1700
a(S'continued'
p1701
tp1702
a(S'novel'
p1703
tp1704
a(S'trips'
p1705
tp1706
a(S'cars'
p1707
tp1708
a(S'representation'
p1709
tp1710
a(S'headquarters'
p1711
tp1712
a(S'associated'
p1713
tp1714
a(S'enter'
p1715
tp1716
a(S'permanent'
p1717
tp1718
a(S'preferences'
p1719
tp1720
a(S'everything'
p1721
tp1722
a(S'lot'
p1723
tp1724
a(S'train'
p1725
tp1726
a(S'story'
p1727
tp1728
a(S'particular'
p1729
tp1730
a(S'final'
p1731
tp1732
a(S'jakub'
p1733
tp1734
a(S'turned'
p1735
tp1736
a(S'true'
p1737
tp1738
a(S'mistakes'
p1739
tp1740
a(S'freely'
p1741
tp1742
a(S'bad'
p1743
tp1744
a(S'completely'
p1745
tp1746
a(S'agrees'
p1747
tp1748
a(S'defense'
p1749
tp1750
a(S'value'
p1751
tp1752
a(S'asked'
p1753
tp1754
a(S'character'
p1755
tp1756
a(S'houses'
p1757
tp1758
a(S'plans'
p1759
tp1760
a(S'appearance'
p1761
tp1762
a(S'activities'
p1763
tp1764
a(S'anything'
p1765
tp1766
a(S'evening'
p1767
tp1768
a(S'connected'
p1769
tp1770
a(S'standard'
p1771
tp1772
a(S'particularly'
p1773
tp1774
a(S'living'
p1775
tp1776
a(S'dollars'
p1777
tp1778
a(S'suffering'
p1779
tp1780
a(S'view'
p1781
tp1782
a(S'practical'
p1783
tp1784
a(S'form'
p1785
tp1786
a(S'cooperate'
p1787
tp1788
a(S'thought'
p1789
tp1790
a(S'events'
p1791
tp1792
a(S'reason'
p1793
tp1794
a(S'air'
p1795
tp1796
a(S'show'
p1797
tp1798
a(S'towards'
p1799
tp1800
a(S'merger'
p1801
tp1802
a(S'solve'
p1803
tp1804
a(S'tile'
p1805
tp1806
a(S'ideas'
p1807
tp1808
a(S'code'
p1809
tp1810
a(S'10'
p1811
tp1812
a(S'sought'
p1813
tp1814
a(S'honza'
p1815
tp1816
a(S'showed'
p1817
tp1818
a(S'attract'
p1819
tp1820
a(S'night'
p1821
tp1822
a(S'removed'
p1823
tp1824
a(S'fears'
p1825
tp1826
a(S'raised'
p1827
tp1828
a(S'imagine'
p1829
tp1830
a(S'whether'
p1831
tp1832
a(S'pleasant'
p1833
tp1834
a(S'parts'
p1835
tp1836
a(S'moving'
p1837
tp1838
a(S'hotel'
p1839
tp1840
a(S'car'
p1841
tp1842
a(S'relations'
p1843
tp1844
a(S'yourself'
p1845
tp1846
a(S'probably'
p1847
tp1848
a(S'making'
p1849
tp1850
a(S'lectures'
p1851
tp1852
a(S'index'
p1853
tp1854
a(S'others'
p1855
tp1856
a(S'eyes'
p1857
tp1858
a(S'argues'
p1859
tp1860
a(S'supported'
p1861
tp1862
a(S'keep'
p1863
tp1864
a(S'internal'
p1865
tp1866
a(S'accidents'
p1867
tp1868
a(S'declared'
p1869
tp1870
a(S'online'
p1871
tp1872
a(S'senior'
p1873
tp1874
a(S'euros'
p1875
tp1876
a(S'visas'
p1877
tp1878
a(S'sharply'
p1879
tp1880
a(S'protect'
p1881
tp1882
a(S'lives'
p1883
tp1884
a(S'cannot'
p1885
tp1886
a(S'identity'
p1887
tp1888
a(S'mountains'
p1889
tp1890
a(S'advice'
p1891
tp1892
a(S'doubled'
p1893
tp1894
a(S'due'
p1895
tp1896
a(S'desert'
p1897
tp1898
a(S'rest'
p1899
tp1900
a(S'showing'
p1901
tp1902
a(S'station'
p1903
tp1904
a(S'travelers'
p1905
tp1906
a(S'consider'
p1907
tp1908
a(S'across'
p1909
tp1910
a(S'covered'
p1911
tp1912
a(S'models'
p1913
tp1914
a(S'defined'
p1915
tp1916
a(S'special'
p1917
tp1918
a(S'rising'
p1919
tp1920
a(S'region'
p1921
tp1922
a(S'row'
p1923
tp1924
a(S'tourist'
p1925
tp1926
a(S'save'
p1927
tp1928
a(S'preference'
p1929
tp1930
a(S'laid'
p1931
tp1932
a(S'crowns'
p1933
tp1934
a(S'sale'
p1935
tp1936
a(S'euro'
p1937
tp1938
a(S'teams'
p1939
tp1940
a(S'reality'
p1941
tp1942
a(S'victory'
p1943
tp1944
a(S'focus'
p1945
tp1946
a(S'parties'
p1947
tp1948
a(S'compensation'
p1949
tp1950
a(S'negotiations'
p1951
tp1952
a(S'defender'
p1953
tp1954
a(S'needed'
p1955
tp1956
a(S'clients'
p1957
tp1958
a(S'creates'
p1959
tp1960
a(S'organizations'
p1961
tp1962
a(S'employees'
p1963
tp1964
a(S'lead'
p1965
tp1966
a(S'pounds'
p1967
tp1968
a(S'josef'
p1969
tp1970
a(S'families'
p1971
tp1972
a(S'policy'
p1973
tp1974
a(S'governments'
p1975
tp1976
a(S'presented'
p1977
tp1978
a(S'movement'
p1979
tp1980
a(S'simultaneously'
p1981
tp1982
a(S'points'
p1983
tp1984
a(S'weight'
p1985
tp1986
a(S'partially'
p1987
tp1988
a(S'assess'
p1989
tp1990
a(S'stagnation'
p1991
tp1992
a(S'talks'
p1993
tp1994
a(S'extra'
p1995
tp1996
a(S'student'
p1997
tp1998
a(S'sex'
p1999
tp2000
a(S'somehow'
p2001
tp2002
a(S'growing'
p2003
tp2004
a(S'cheap'
p2005
tp2006
a(S'racing'
p2007
tp2008
a(S'changed'
p2009
tp2010
a(S'possibility'
p2011
tp2012
a(S'cancelled'
p2013
tp2014
a(S'annual'
p2015
tp2016
a(S'turns'
p2017
tp2018
a(S'term'
p2019
tp2020
a(S'necessary'
p2021
tp2022
a(S'increase'
p2023
tp2024
a(S'needs'
p2025
tp2026
a(S'key'
p2027
tp2028
a(S'act'
p2029
tp2030
a(S'entering'
p2031
tp2032
a(S'unusual'
p2033
tp2034
a(S'concerts'
p2035
tp2036
a(S'obtain'
p2037
tp2038
a(S'recent'
p2039
tp2040
a(S'bird'
p2041
tp2042
a(S'nearly'
p2043
tp2044
a(S'secure'
p2045
tp2046
a(S'route'
p2047
tp2048
a(S'experts'
p2049
tp2050
a(S'contender'
p2051
tp2052
a(S'corporation'
p2053
tp2054
a(S'prevent'
p2055
tp2056
a(S'falling'
p2057
tp2058
a(S'proper'
p2059
tp2060
a(S'tips'
p2061
tp2062
a(S'narrow'
p2063
tp2064
a(S'separate'
p2065
tp2066
a(S'fast'
p2067
tp2068
a(S'single'
p2069
tp2070
a(S'completed'
p2071
tp2072
a(S'conducted'
p2073
tp2074
a(S'essentially'
p2075
tp2076
a(S'resignation'
p2077
tp2078
a(S'procedure'
p2079
tp2080
a(S'shapes'
p2081
tp2082
a(S'staff'
p2083
tp2084
a(S'targets'
p2085
tp2086
a(S'raises'
p2087
tp2088
a(S'assets'
p2089
tp2090
a(S'therefore'
p2091
tp2092
a(S'percentage'
p2093
tp2094
a(S'exchange'
p2095
tp2096
a(S'done'
p2097
tp2098
a(S'tax'
p2099
tp2100
a(S'system'
p2101
tp2102
a(S'owns'
p2103
tp2104
a(S'glasses'
p2105
tp2106
a(S'issue'
p2107
tp2108
a(S'matter'
p2109
tp2110
a(S'easy'
p2111
tp2112
a(S'challenge'
p2113
tp2114
a(S'classes'
p2115
tp2116
a(S'ended'
p2117
tp2118
a(S'sentenced'
p2119
tp2120
a(S'campaign'
p2121
tp2122
a(S'praised'
p2123
tp2124
a(S'dinner'
p2125
tp2126
a(S'details'
p2127
tp2128
a(S'location'
p2129
tp2130
a(S'thinking'
p2131
tp2132
a(S'secession'
p2133
tp2134
a(S'refused'
p2135
tp2136
a(S'hundreds'
p2137
tp2138
a(S'looking'
p2139
tp2140
a(S'winning'
p2141
tp2142
a(S'application'
p2143
tp2144
a(S'numbers'
p2145
tp2146
a(S'holiday'
p2147
tp2148
a(S'fell'
p2149
tp2150
a(S'times'
p2151
tp2152
a(S'3'
p2153
tp2154
a(S'raise'
p2155
tp2156
a(S'remains'
p2157
tp2158
a(S'views'
p2159
tp2160
a(S'manager'
p2161
tp2162
a(S'3rd'
p2163
tp2164
a(S'bring'
p2165
tp2166
a(S'gained'
p2167
tp2168
a(S'tracks'
p2169
tp2170
a(S'yulia'
p2171
tp2172
a(S'u.s.'
p2173
tp2174
a(S'related'
p2175
tp2176
a(S'join'
p2177
tp2178
a(S'turn'
p2179
tp2180
a(S'opportunities'
p2181
tp2182
a(S'put'
p2183
tp2184
a(S'operating'
p2185
tp2186
a(S'started'
p2187
tp2188
a(S'unnecessary'
p2189
tp2190
a(S'tastes'
p2191
tp2192
a(S'billions'
p2193
tp2194
a(S'self'
p2195
tp2196
a(S'ensure'
p2197
tp2198
a(S'sequences'
p2199
tp2200
a(S'agreed'
p2201
tp2202
a(S'estimates'
p2203
tp2204
a(S'selected'
p2205
tp2206
a(S'party'
p2207
tp2208
a(S'looks'
p2209
tp2210
a(S'referring'
p2211
tp2212
a(S'reaction'
p2213
tp2214
a(S'causing'
p2215
tp2216
a(S"'ll"
p2217
tp2218
a(S'expressed'
p2219
tp2220
a(S'insurance'
p2221
tp2222
a(S'sector'
p2223
tp2224
a(S'rose'
p2225
tp2226
a(S'1'
p2227
tp2228
a(S'morning'
p2229
tp2230
a(S'abandoned'
p2231
tp2232
a(S'agency'
p2233
tp2234
a(S'efficient'
p2235
tp2236
a(S'cost'
p2237
tp2238
a(S'expensive'
p2239
tp2240
a(S'drops'
p2241
tp2242
a(S'choice'
p2243
tp2244
a(S'shopping'
p2245
tp2246
a(S'wealthy'
p2247
tp2248
a(S'demonstrated'
p2249
tp2250
a(S'aware'
p2251
tp2252
a(S'opinions'
p2253
tp2254
a(S'common'
p2255
tp2256
a(S'leads'
p2257
tp2258
a(S'mind'
p2259
tp2260
a(S'interest'
p2261
tp2262
a(S'century'
p2263
tp2264
a(S'mean'
p2265
tp2266
a(S'union'
p2267
tp2268
a(S'sites'
p2269
tp2270
a(S'successful'
p2271
tp2272
a(S'remarkable'
p2273
tp2274
a(S'yields'
p2275
tp2276
a(S'military'
p2277
tp2278
a(S'chart'
p2279
tp2280
a(S'weakness'
p2281
tp2282
a(S'supposed'
p2283
tp2284
a(S'metal'
p2285
tp2286
a(S'ideal'
p2287
tp2288
a(S'100'
p2289
tp2290
a(S'choose'
p2291
tp2292
a(S'telling'
p2293
tp2294
a(S'competitors'
p2295
tp2296
a(S'sold'
p2297
tp2298
a(S'rides'
p2299
tp2300
a(S'floor'
p2301
tp2302
a(S'complaints'
p2303
tp2304
a(S'average'
p2305
tp2306
a(S'tied'
p2307
tp2308
a(S'unexpected'
p2309
tp2310
a(S'equipment'
p2311
tp2312
a(S'active'
p2313
tp2314
a(S'stand'
p2315
tp2316
a(S'four'
p2317
tp2318
a(S'opponents'
p2319
tp2320
a(S'access'
p2321
tp2322
a(S'relief'
p2323
tp2324
a(S'interests'
p2325
tp2326
a(S'spectacular'
p2327
tp2328
a(S'message'
p2329
tp2330
a(S'leader'
p2331
tp2332
a(S'mark'
p2333
tp2334
a(S'bankers'
p2335
tp2336
a(S'gives'
p2337
tp2338
a(S'5'
p2339
tp2340
a(S'rejected'
p2341
tp2342
a(S"'ve"
p2343
tp2344
a(S'meat'
p2345
tp2346
a(S'dangerous'
p2347
tp2348
a(S'potential'
p2349
tp2350
a(S'iraq'
p2351
tp2352
a(S'quota'
p2353
tp2354
a(S'80'
p2355
tp2356
a(S'lopez'
p2357
tp2358
a(S'\xd0\xb8\xd0\xb2\xd0\xb5\xd1\x82\xd1\x83'
p2359
tp2360
a(S'172'
p2361
tp2362
a(S'corruption'
p2363
tp2364
a(S'\xd1\x81\xd0\xbd\xd0\xb8\xd0\xb6\xd0\xb0\xd1\x8e\xd1\x89\xd1\x83\xd1\x8e'
p2365
tp2366
a(S'2001'
p2367
tp2368
a(S'concern'
p2369
tp2370
a(S'\xd0\xbe\xd0\xbb\xd1\x8c\xd0\xb1\xd1\x80\xd0\xb8\xd1\x85\xd0\xb0'
p2371
tp2372
a(S'\xc4\x8dedok'
p2373
tp2374
a(S'\xd0\xbf\xd0\xb5\xd1\x80\xd0\xb5\xd0\xb7\xd0\xb0\xd0\xbf\xd1\x83\xd1\x81\xd0\xba\xd0\xbe\xd0\xb2'
p2375
tp2376
a(S'scored'
p2377
tp2378
a(S'celebrate'
p2379
tp2380
a(S'federation'
p2381
tp2382
a(S'karel'
p2383
tp2384
a(S'spears'
p2385
tp2386
a(S'live'
p2387
tp2388
a(S'schools'
p2389
tp2390
a(S'harald'
p2391
tp2392
a(S'motivation'
p2393
tp2394
a(S'h'
p2395
tp2396
a(S'\xd0\xbb\xd1\x8b\xd0\xb6\xd0\xbd\xd0\xb5'
p2397
tp2398
a(S'oracle'
p2399
tp2400
a(S'bias'
p2401
tp2402
a(S'\xd0\xb4\xd0\xb2\xd0\xb0\xd0\xb9\xd0\xb5\xd1\x80'
p2403
tp2404
a(S'discounts'
p2405
tp2406
a(S'hotly'
p2407
tp2408
a(S'tents'
p2409
tp2410
a(S'follower'
p2411
tp2412
a(S'habits'
p2413
tp2414
a(S'incredible'
p2415
tp2416
a(S'evasion'
p2417
tp2418
a(S'saturn'
p2419
tp2420
a(S'thursday'
p2421
tp2422
a(S'300'
p2423
tp2424
a(S'\xd0\xba\xd1\x80\xd0\xb8\xd1\x88\xd0\xb0\xd0\xbd\xd0\xb8\xd1\x82\xd1\x86\xd0\xb0'
p2425
tp2426
a(S'paradox'
p2427
tp2428
a(S'passion'
p2429
tp2430
a(S'harvard'
p2431
tp2432
a(S'bilateral'
p2433
tp2434
a(S'bed'
p2435
tp2436
a(S'\xd1\x8e\xd1\x80\xd0\xba\xd0\xbe\xd0\xb2\xd0\xb8\xd1\x87\xd0\xb5\xd0\xbc'
p2437
tp2438
a(S'suburbs'
p2439
tp2440
a(S'fund'
p2441
tp2442
a(S'restoration'
p2443
tp2444
a(S'attempt'
p2445
tp2446
a(S'sunday'
p2447
tp2448
a(S'confederation'
p2449
tp2450
a(S'cola'
p2451
tp2452
a(S'mercury'
p2453
tp2454
a(S'words'
p2455
tp2456
a(S'4.5'
p2457
tp2458
a(S'150'
p2459
tp2460
a(S'\xd1\x88\xd0\xb2\xd0\xb0\xd0\xbd\xd1\x86\xd0\xb5\xd1\x80\xd0\xb0'
p2461
tp2462
a(S'1932'
p2463
tp2464
a(S'ben'
p2465
tp2466
a(S'exotic'
p2467
tp2468
a(S'\xd0\xbf\xd0\xbe\xd0\xb2\xd1\x8f\xd0\xb7\xd1\x8b\xd0\xb2\xd0\xb0\xd0\xb5\xd1\x82\xd0\xb5'
p2469
tp2470
a(S'eurostat'
p2471
tp2472
a(S'\xd0\xbf\xd1\x80\xd0\xb0\xd0\xb2\xd0\xbe\xd1\x8d\xd0\xba\xd1\x81\xd1\x82\xd1\x80\xd0\xb5\xd0\xbc\xd0\xb8\xd1\x81\xd1\x82\xd1\x81\xd0\xba\xd0\xbe\xd0\xb5'
p2473
tp2474
a(S'studied'
p2475
tp2476
a(S'unerring'
p2477
tp2478
a(S'spr\xc3\xbcngli'
p2479
tp2480
a(S'\xd1\x85\xd1\x8d\xd0\xbf\xd0\xbf\xd0\xb5\xd0\xbd\xd0\xb8\xd0\xbd\xd0\xb3\xd0\xb8'
p2481
tp2482
a(S'rompuy'
p2483
tp2484
a(S'slovakia'
p2485
tp2486
a(S'\xd0\xba\xd0\xbe\xd0\xbd\xd0\xba\xd1\x83\xd1\x80\xd0\xb5\xd0\xbd\xd1\x82\xd0\xb5'
p2487
tp2488
a(S'platforms'
p2489
tp2490
a(S'lucrative'
p2491
tp2492
a(S'\xd0\xbc\xd1\x83\xd0\xb4\xd0\xb1\xd0\xbe\xd1\x80\xd0\xb4'
p2493
tp2494
a(S'sotheby'
p2495
tp2496
a(S'photographer'
p2497
tp2498
a(S'\xd0\xb0\xd0\xbf\xd0\xbf\xd0\xbb\xd0\xb8\xd0\xba\xd0\xb0\xd1\x86\xd0\xb8\xd0\xb5\xd0\xb9'
p2499
tp2500
a(S'berkshire'
p2501
tp2502
a(S'mass'
p2503
tp2504
a(S'scenes'
p2505
tp2506
a(S'apple'
p2507
tp2508
a(S'\xd0\xbf\xd1\x80\xd0\xbe\xd1\x81\xd1\x82\xd0\xb8\xd0\xbb\xd0\xb0\xd1\x81\xd1\x8c'
p2509
tp2510
a(S'1973'
p2511
tp2512
a(S'jack'
p2513
tp2514
a(S'\xd1\x81\xd1\x82\xd1\x80\xd0\xb0\xd1\x85\xd0\xbe\xd0\xb2\xd1\x83'
p2515
tp2516
a(S'170'
p2517
tp2518
a(S'\xd1\x81\xd0\xbe\xd0\xb1\xd0\xb8\xd1\x80\xd0\xb0\xd1\x82\xd0\xb5\xd0\xbb\xd1\x8c\xd0\xbd\xd0\xb8\xd1\x86\xd1\x83'
p2519
tp2520
a(S'chocolate'
p2521
tp2522
a(S'mutual'
p2523
tp2524
a(S'october'
p2525
tp2526
a(S'exaggerate'
p2527
tp2528
a(S'professor'
p2529
tp2530
a(S'community'
p2531
tp2532
a(S'x'
p2533
tp2534
a(S'\xd1\x85\xd0\xbe\xd1\x80\xd0\xbe\xd0\xb2\xd1\x83\xd1\x8e'
p2535
tp2536
a(S'weary'
p2537
tp2538
a(S'exchanges'
p2539
tp2540
a(S'\xd0\xb1\xd0\xb5\xd1\x80\xd0\xb1\xd1\x80\xd0\xbe\xd0\xbc'
p2541
tp2542
a(S'realistic'
p2543
tp2544
a(S'nervousness'
p2545
tp2546
a(S'cheese'
p2547
tp2548
a(S'authors'
p2549
tp2550
a(S'funded'
p2551
tp2552
a(S'1997'
p2553
tp2554
a(S'ukraine'
p2555
tp2556
a(S'lush'
p2557
tp2558
a(S'\xd0\xb0\xd0\xbb\xd0\xb5\xd0\xbd\xd0\xba\xd0\xbe\xd0\xb9'
p2559
tp2560
a(S'royal'
p2561
tp2562
a(S'lover'
p2563
tp2564
a(S'12,078'
p2565
tp2566
a(S'\xd1\x82\xd1\x80\xd0\xb8\xd0\xb4\xd1\x86\xd0\xb0\xd1\x82\xd0\xb8\xd0\xb4\xd0\xb5\xd0\xb2\xd1\x8f\xd1\x82\xd0\xb8\xd0\xbb\xd0\xb5\xd1\x82\xd0\xbd\xd0\xb5\xd0\xb9'
p2567
tp2568
a(S'\xd1\x81\xd1\x82\xd1\x80\xd1\x8f\xd1\x85\xd0\xbd\xd0\xb5\xd1\x82'
p2569
tp2570
a(S'facts'
p2571
tp2572
a(S'losers'
p2573
tp2574
a(S'eight'
p2575
tp2576
a(S'quality'
p2577
tp2578
a(S'builders'
p2579
tp2580
a(S'forgotten'
p2581
tp2582
a(S'\xd1\x87\xd0\xb0\xd0\xbb\xd1\x83\xd0\xbd'
p2583
tp2584
a(S'\xd1\x81\xd1\x83\xd0\xb1\xd0\xb1\xd0\xb0\xd0\xbd'
p2585
tp2586
a(S'punishment'
p2587
tp2588
a(S'dow'
p2589
tp2590
a(S'fried'
p2591
tp2592
a(S'\xd0\xbf\xd0\xb5\xd1\x80\xd0\xb5\xd0\xb7\xd0\xb0\xd0\xbf\xd1\x83\xd1\x81\xd0\xba\xd0\xb8'
p2593
tp2594
a(S'49'
p2595
tp2596
a(S'780'
p2597
tp2598
a(S'\xd1\x87\xd0\xb0\xd1\x80\xd1\x82\xd0\xb5\xd1\x80\xd0\xbd\xd1\x8b\xd0\xbc\xd0\xb8'
p2599
tp2600
a(S'\xd0\xba\xd0\xbe\xd0\xbc\xd0\xbc\xd0\xb5\xd0\xbd\xd1\x82\xd0\xb8\xd1\x80\xd1\x83\xd1\x8e\xd1\x89\xd0\xb5\xd0\xb9'
p2601
tp2602
a(S'jones'
p2603
tp2604
a(S'ncua'
p2605
tp2606
a(S'\xd0\xb2\xd1\x83\xd0\xbb\xd1\x84\xd1\x84\xd0\xbb\xd0\xb8'
p2607
tp2608
a(S'\xd0\xbf\xd0\xbe\xd0\xb3\xd0\xbb\xd0\xbe\xd1\x82\xd0\xb8\xd1\x82\xd0\xb5\xd0\xbb\xd0\xb5\xd0\xbc'
p2609
tp2610
a(S'\xd0\xb1\xd0\xbe\xd0\xb3\xd1\x83\xd1\x81\xd0\xbb\xd0\xb0\xd0\xb2\xd0\xb0'
p2611
tp2612
a(S'fannie'
p2613
tp2614
a(S'veil'
p2615
tp2616
a(S'hosting'
p2617
tp2618
a(S'marble'
p2619
tp2620
a(S'wet'
p2621
tp2622
a(S'\xd0\xb1\xd0\xb8\xd0\xbb\xd1\x8c\xd0\xb4'
p2623
tp2624
a(S'\xd1\x8d\xd1\x86\xd1\x82\xd0\xb0\xd0\xbb\xd1\x8c\xd1\x81\xd0\xba\xd0\xb8\xd1\x85'
p2625
tp2626
a(S'\xd1\x80\xd0\xb0\xd0\xbd\xd0\xbb\xd0\xb5\xd1\x82'
p2627
tp2628
a(S'word'
p2629
tp2630
a(S'ton'
p2631
tp2632
a(S'mae'
p2633
tp2634
a(S'21st'
p2635
tp2636
a(S'freddie'
p2637
tp2638
a(S'220'
p2639
tp2640
a(S'hey'
p2641
tp2642
a(S'york'
p2643
tp2644
a(S'convertible'
p2645
tp2646
a(S'\xd0\xbc\xd0\xb0\xd0\xbb\xd1\x8c\xd1\x87\xd0\xb8\xd1\x88\xd0\xb5\xd1\x81\xd0\xba\xd0\xb8\xd1\x85'
p2647
tp2648
a(S'aimed'
p2649
tp2650
a(S'soviet'
p2651
tp2652
a(S'wellness'
p2653
tp2654
a(S'influential'
p2655
tp2656
a(S'sludge'
p2657
tp2658
a(S'\xd0\xba\xd0\xbe\xd0\xbd\xd0\xb2\xd0\xb5\xd1\x80\xd1\x82\xd0\xb0\xd1\x86\xd0\xb8\xd0\xb5\xd0\xb9'
p2659
tp2660
a(S'serbia'
p2661
tp2662
a(S'parents'
p2663
tp2664
a(S'\xd0\xba\xd0\xbe\xd0\xbd\xd0\xb2\xd0\xb5\xd1\x80\xd1\x82\xd0\xb8\xd1\x80\xd1\x83\xd0\xb5\xd0\xbc\xd1\x83\xd1\x8e'
p2665
tp2666
a(S'2.6'
p2667
tp2668
a(S'frankfurt'
p2669
tp2670
a(S'heard'
p2671
tp2672
a(S'legal'
p2673
tp2674
a(S'salzburg'
p2675
tp2676
a(S'importance'
p2677
tp2678
a(S'classic'
p2679
tp2680
a(S'pages'
p2681
tp2682
a(S'\xd0\xbd\xd0\xb8\xd0\xbc\xd0\xb1\xd1\x83\xd1\x80\xd0\xba\xd0\xb5'
p2683
tp2684
a(S'v\xc5\xa1eobecn\xc3\xa1'
p2685
tp2686
a(S'\xd1\x81\xd0\xb8\xd0\xbc\xd0\xbc\xd0\xbe\xd0\xbd\xd0\xb4\xd1\x81\xd0\xbe\xd0\xbc'
p2687
tp2688
a(S'von'
p2689
tp2690
a(S'montenegro'
p2691
tp2692
a(S'\xd0\xbd\xd0\xb5\xd0\xbd\xd0\xb0\xd0\xb7\xd0\xb2\xd0\xb0\xd0\xbd\xd0\xbd\xd0\xbe\xd0\xb5'
p2693
tp2694
a(S'ckm'
p2695
tp2696
a(S'\xd0\xb9\xd0\xb8\xd0\xbd\xd0\xb4\xd1\x80\xd0\xb6\xd0\xb8\xd1\x85'
p2697
tp2698
a(S'forget'
p2699
tp2700
a(S'\xd0\xbf\xd0\xb5\xd0\xbb\xd1\x8c\xd1\x82\xd1\x83'
p2701
tp2702
a(S'downs'
p2703
tp2704
a(S'recovered'
p2705
tp2706
a(S'ceremony'
p2707
tp2708
a(S'painted'
p2709
tp2710
a(S'\xc4\x8dtk'
p2711
tp2712
a(S'\xd0\xbf\xd0\xb0\xd1\x80\xd0\xb0\xd0\xbb\xd0\xb8\xd0\xb7\xd0\xb0\xd1\x86\xd0\xb8\xd1\x8e'
p2713
tp2714
a(S'68'
p2715
tp2716
a(S'arms'
p2717
tp2718
a(S'friends'
p2719
tp2720
a(S'declarations'
p2721
tp2722
a(S'jacuzzi'
p2723
tp2724
a(S'moon'
p2725
tp2726
a(S'combinations'
p2727
tp2728
a(S'patrick'
p2729
tp2730
a(S'\xd1\x80\xd1\x8e\xd1\x88\xd0\xb0\xd0\xbc\xd0\xb8'
p2731
tp2732
a(S'\xd1\x81\xd0\xbc\xd0\xb8\xd1\x85\xd0\xbe\xd0\xb2'
p2733
tp2734
a(S'\xd0\xb4\xd0\xbe\xd0\xb1\xd0\xb5\xd1\x88'
p2735
tp2736
a(S'italian'
p2737
tp2738
a(S'herman'
p2739
tp2740
a(S'alkaline'
p2741
tp2742
a(S'unions'
p2743
tp2744
a(S'fourth'
p2745
tp2746
a(S'\xd0\xb4\xd1\x83\xd1\x88\xd0\xb0\xd0\xbd\xd0\xbe\xd0\xbc'
p2747
tp2748
a(S'sergio'
p2749
tp2750
a(S'sandstorm'
p2751
tp2752
a(S'hall'
p2753
tp2754
a(S'\xd0\xb1\xd0\xb0\xd1\x80\xd1\x82\xd0\xbe\xd1\x88\xd0\xbe\xd0\xb2\xd0\xb0'
p2755
tp2756
a(S'skin'
p2757
tp2758
a(S'sticks'
p2759
tp2760
a(S'priorities'
p2761
tp2762
a(S'500'
p2763
tp2764
a(S'surrounded'
p2765
tp2766
a(S'fish'
p2767
tp2768
a(S'\xd0\xbf\xd0\xb5\xd1\x80\xd0\xb5\xd0\xb8\xd0\xb3\xd1\x80\xd0\xbe\xd0\xb2\xd0\xbe\xd1\x87\xd0\xbd\xd0\xbe\xd0\xb3\xd0\xbe'
p2769
tp2770
a(S'olympic'
p2771
tp2772
a(S'\xd0\xb3\xd0\xb0\xd0\xbc\xd0\xbf\xd0\xbb'
p2773
tp2774
a(S'opposition'
p2775
tp2776
a(S'wayne'
p2777
tp2778
a(S'hours'
p2779
tp2780
a(S'huge'
p2781
tp2782
a(S'impression'
p2783
tp2784
a(S'\xd0\xb4\xd0\xb0\xd0\xbb\xd0\xb8\xd0\xb1\xd0\xbe\xd1\x80\xd0\xb0'
p2785
tp2786
a(S'portal'
p2787
tp2788
a(S'enrichment'
p2789
tp2790
a(S'\xd0\xba\xd0\xb0\xd0\xbd\xd1\x82\xd0\xb5\xd1\x80'
p2791
tp2792
a(S'baer'
p2793
tp2794
a(S'heart'
p2795
tp2796
a(S'blesk'
p2797
tp2798
a(S'fries'
p2799
tp2800
a(S'windows'
p2801
tp2802
a(S'\xd0\xb7\xd0\xb0\xd0\xbf\xd0\xb5\xd1\x87\xd0\xb0\xd1\x82\xd0\xbb\xd0\xb5\xd0\xbb\xd0\xb0\xd1\x81\xd1\x8c'
p2803
tp2804
a(S'sofas'
p2805
tp2806
a(S'hypocritical'
p2807
tp2808
a(S'0.3'
p2809
tp2810
a(S'\xd0\xba\xd1\x80\xd0\xb8\xd1\x88\xd0\xb0\xd0\xbd\xd0\xb8\xd1\x82\xd1\x86'
p2811
tp2812
a(S'blue'
p2813
tp2814
a(S'millions'
p2815
tp2816
a(S'coca'
p2817
tp2818
a(S'donations'
p2819
tp2820
a(S'autoturist'
p2821
tp2822
a(S'moments'
p2823
tp2824
a(S'hot'
p2825
tp2826
a(S'arco'
p2827
tp2828
a(S'britney'
p2829
tp2830
a(S'garden'
p2831
tp2832
a(S'\xd0\xbf\xd1\x80\xd0\xb0\xd0\xb2\xd0\xbe\xd1\x8d\xd0\xba\xd1\x81\xd1\x82\xd1\x80\xd0\xb5\xd0\xbc\xd0\xb8\xd1\x81\xd1\x82\xd1\x81\xd0\xba\xd0\xb0\xd1\x8f'
p2833
tp2834
a(S'matt'
p2835
tp2836
a(S'project'
p2837
tp2838
a(S'culmination'
p2839
tp2840
a(S'status'
p2841
tp2842
a(S'miss'
p2843
tp2844
a(S'cologne'
p2845
tp2846
a(S'\xd0\xb3\xd1\x80\xd1\x8e\xd0\xb1\xd0\xb5\xd0\xbb\xd1\x8e'
p2847
tp2848
a(S'1251'
p2849
tp2850
a(S'\xd0\xbd\xd0\xb8\xd0\xb7\xd0\xba\xd0\xbe\xd0\xbf\xd1\x80\xd0\xb8\xd0\xb1\xd1\x8b\xd0\xbb\xd1\x8c\xd0\xbd\xd1\x8b\xd0\xb5'
p2851
tp2852
a(S'sharia'
p2853
tp2854
a(S'neck'
p2855
tp2856
a(S'wholesale'
p2857
tp2858
a(S'1935'
p2859
tp2860
a(S'58'
p2861
tp2862
a(S'delicacies'
p2863
tp2864
a(S'zdravotn\xc3\xad'
p2865
tp2866
a(S'\xd1\x80\xd0\xbe\xd0\xb7\xd0\xb0\xd0\xb1\xd0\xb5\xd1\x82'
p2867
tp2868
a(S'politically'
p2869
tp2870
a(S'1981'
p2871
tp2872
a(S'june'
p2873
tp2874
a(S'munich'
p2875
tp2876
a(S'knives'
p2877
tp2878
a(S'balance'
p2879
tp2880
a(S'rekrea'
p2881
tp2882
a(S'executed'
p2883
tp2884
a(S'temporary'
p2885
tp2886
a(S'cool'
p2887
tp2888
a(S'plunged'
p2889
tp2890
a(S'regulators'
p2891
tp2892
a(S'\xd0\xb7\xd1\x83\xd0\xb1\xd1\x80\xd0\xb8\xd0\xbc'
p2893
tp2894
a(S'secrecy'
p2895
tp2896
a(S'\xd0\xb1\xd0\xb0\xd1\x80\xd1\x82\xd0\xbe\xd1\x88\xd0\xbe\xd0\xb2\xd0\xbe\xd0\xb9'
p2897
tp2898
a(S'sochi'
p2899
tp2900
a(S'parliament'
p2901
tp2902
a(S'inability'
p2903
tp2904
a(S'claude'
p2905
tp2906
a(S'cycle'
p2907
tp2908
a(S'prizes'
p2909
tp2910
a(S'\xd0\xb1\xd0\xbe\xd0\xb3\xd0\xb5\xd0\xbc\xd1\x86\xd0\xb5\xd0\xb2'
p2911
tp2912
a(S'visit'
p2913
tp2914
a(S'1969'
p2915
tp2916
a(S'fiber'
p2917
tp2918
a(S'invest'
p2919
tp2920
a(S'parks'
p2921
tp2922
a(S'guggenheim'
p2923
tp2924
a(S'optics'
p2925
tp2926
a(S'\xd0\xb4\xd0\xb2\xd1\x83\xd1\x85\xd0\xbe\xd1\x87\xd0\xba\xd0\xbe\xd0\xb2\xd0\xbe\xd0\xb5'
p2927
tp2928
a(S'critical'
p2929
tp2930
a(S'conditioning'
p2931
tp2932
a(S'\xd0\xb0\xd1\x80\xd0\xbb\xd1\x8c\xd0\xb1\xd0\xb5\xd1\x80\xd0\xb3'
p2933
tp2934
a(S'm\xc3\xbcnchener'
p2935
tp2936
a(S'discriminatory'
p2937
tp2938
a(S'van'
p2939
tp2940
a(S'chlorine'
p2941
tp2942
a(S'chase'
p2943
tp2944
a(S'sporturist'
p2945
tp2946
a(S'schuman'
p2947
tp2948
a(S'expansion'
p2949
tp2950
a(S'luxembourg'
p2951
tp2952
a(S'object'
p2953
tp2954
a(S'gift'
p2955
tp2956
a(S'pile'
p2957
tp2958
a(S'boss'
p2959
tp2960
a(S'brilliant'
p2961
tp2962
a(S'\xd0\xb4\xd1\x83\xd0\xba\xd0\xbb\xd0\xbe\xd0\xb9'
p2963
tp2964
a(S'\xd1\x84\xd0\xb8\xd0\xb3\xd1\x83\xd1\x80\xd0\xb8\xd1\x81\xd1\x82\xd0\xba\xd0\xb8'
p2965
tp2966
a(S'/'
p2967
tp2968
a(S'incredibly'
p2969
tp2970
a(S'motive'
p2971
tp2972
a(S'thailand'
p2973
tp2974
a(S'positive'
p2975
tp2976
a(S'\xd0\xb2\xd0\xbf\xd0\xb8\xd1\x88\xd0\xb5\xd1\x82\xd0\xb5\xd1\x81\xd1\x8c'
p2977
tp2978
a(S'helmut'
p2979
tp2980
a(S'\xd0\xb1\xd0\xb5\xd1\x80\xd0\xb1\xd1\x80'
p2981
tp2982
a(S'roles'
p2983
tp2984
a(S'r\xc3\xbcck'
p2985
tp2986
a(S'clash'
p2987
tp2988
a(S'2015'
p2989
tp2990
a(S'0.5'
p2991
tp2992
a(S'planned'
p2993
tp2994
a(S'lobbyist'
p2995
tp2996
a(S'sabah'
p2997
tp2998
a(S'infrastructure'
p2999
tp3000
a(S'arising'
p3001
tp3002
a(S'scott'
p3003
tp3004
a(S'culture'
p3005
tp3006
a(S'lord'
p3007
tp3008
a(S'analyst'
p3009
tp3010
a(S'planet'
p3011
tp3012
a(S'deliver'
p3013
tp3014
a(S'\xd1\x84\xd1\x80\xd0\xb0\xd0\xbd\xd1\x87\xd0\xb5\xd1\x81\xd0\xba\xd0\xb0'
p3015
tp3016
a(S'armed'
p3017
tp3018
a(S'ermotti'
p3019
tp3020
a(S'scotland'
p3021
tp3022
a(S'\xd0\xbc\xd0\xb5\xd0\xb6\xd0\xb4\xd1\x83\xd0\xb2\xd0\xbb\xd0\xb0\xd1\x81\xd1\x82\xd0\xb8\xd1\x8f'
p3023
tp3024
a(S'\xd1\x8f\xd0\xb1\xd0\xbb\xd0\xbe\xd0\xbd\xd0\xb5\xd1\x86\xd0\xb0'
p3025
tp3026
a(S'\xd0\xbf\xd0\xbe\xd0\xb4\xd0\xb3\xd0\xbe\xd1\x80\xd0\xb8\xd1\x86\xd1\x83'
p3027
tp3028
a(S'\xd0\xb0\xd0\xba\xd0\xba\xd0\xb5\xd1\x80\xd0\xbc\xd0\xb0\xd0\xbd\xd0\xbd'
p3029
tp3030
a(S'\xd0\xbe\xd1\x82\xd0\xbc\xd0\xb5\xd1\x87\xd0\xb0\xd1\x8e\xd1\x89\xd0\xb8\xd0\xbc\xd0\xb8'
p3031
tp3032
a(S'budapest'
p3033
tp3034
a(S'brown'
p3035
tp3036
a(S'4'
p3037
tp3038
a(S'2:3'
p3039
tp3040
a(S'twenty'
p3041
tp3042
a(S'collar'
p3043
tp3044
a(S'regret'
p3045
tp3046
a(S'\xd1\x88\xd0\xb0\xd0\xb9\xd0\xb1\xd0\xb5'
p3047
tp3048
a(S'sleep'
p3049
tp3050
a(S"'\xd0\xb2\xd0\xbe\xd1\x88\xd0\xbb\xd0\xb8"
p3051
tp3052
a(S'homework'
p3053
tp3054
a(S'motivational'
p3055
tp3056
a(S'visegrad'
p3057
tp3058
a(S'boots'
p3059
tp3060
a(S'diverse'
p3061
tp3062
a(S'hear'
p3063
tp3064
a(S'publicly'
p3065
tp3066
a(S'scrap'
p3067
tp3068
a(S'\xd0\xbe\xd1\x81\xd0\xbb\xd0\xb5\xd0\xbf\xd1\x8f\xd1\x82'
p3069
tp3070
a(S'soundtrack'
p3071
tp3072
a(S'habit'
p3073
tp3074
a(S'channel'
p3075
tp3076
a(S'prime'
p3077
tp3078
a(S'paris'
p3079
tp3080
a(S'hathaway'
p3081
tp3082
a(S'sister'
p3083
tp3084
a(S'slovenia'
p3085
tp3086
a(S'interview'
p3087
tp3088
a(S'extremist'
p3089
tp3090
a(S'\xd0\xbf\xd0\xbe\xd0\xbd\xd1\x80\xd0\xb0\xd0\xb2\xd0\xb8\xd0\xb2\xd1\x88\xd0\xb8\xd0\xb9\xd1\x81\xd1\x8f'
p3091
tp3092
a(S'replaced'
p3093
tp3094
a(S'\xd0\xb3\xd0\xb8\xd0\xb4\xd1\x80\xd0\xbe\xd0\xba\xd0\xb0\xd1\x80\xd0\xb1\xd0\xbe\xd0\xbd\xd0\xb0\xd1\x82\xd1\x8b'
p3095
tp3096
a(S'lindt'
p3097
tp3098
a(S'\xd0\xbf\xd0\xb5\xd1\x80\xd0\xb5\xd0\xb4\xd0\xb2\xd0\xb8\xd0\xbd\xd1\x83\xd0\xbb\xd0\xb0'
p3099
tp3100
a(S'nutrition'
p3101
tp3102
a(S'speedometer'
p3103
tp3104
a(S'oil'
p3105
tp3106
a(S'accuses'
p3107
tp3108
a(S'understandable'
p3109
tp3110
a(S'canadiens'
p3111
tp3112
a(S'easier'
p3113
tp3114
a(S'wheat'
p3115
tp3116
a(S'helps'
p3117
tp3118
a(S'thirds'
p3119
tp3120
a(S'schengen'
p3121
tp3122
a(S'1902'
p3123
tp3124
a(S'\xd1\x80\xd1\x8e\xd0\xb4\xd0\xb8\xd0\xb3\xd0\xb5\xd1\x80'
p3125
tp3126
a(S'120'
p3127
tp3128
a(S'\xd1\x80\xd1\x83\xd0\xb6\xd0\xb8\xd1\x87\xd0\xba\xd0\xb8'
p3129
tp3130
a(S'\xd1\x88\xd0\xb2\xd0\xb0\xd0\xbd\xd1\x86\xd0\xb5\xd1\x80\xd0\xbe\xd0\xbc'
p3131
tp3132
a(S'democratic'
p3133
tp3134
a(S'unfortunately'
p3135
tp3136
a(S'coverage'
p3137
tp3138
a(S'pleasure'
p3139
tp3140
a(S'processes'
p3141
tp3142
a(S'styles'
p3143
tp3144
a(S'crimea'
p3145
tp3146
a(S'samuel'
p3147
tp3148
a(S'5150'
p3149
tp3150
a(S'zwickau'
p3151
tp3152
a(S'celebrating'
p3153
tp3154
a(S'legendary'
p3155
tp3156
a(S'adding'
p3157
tp3158
a(S'\xd1\x87\xd0\xb0\xd1\x80\xd1\x82\xd0\xb5\xd1\x80\xd0\xbd\xd0\xbe\xd0\xbc\xd1\x83'
p3159
tp3160
a(S'1995'
p3161
tp3162
a(S'\xd1\x88\xd0\xbe\xd0\xbf\xd0\xbf\xd0\xb8\xd0\xbd\xd0\xb3\xd1\x83'
p3163
tp3164
a(S'20'
p3165
tp3166
a(S'roof'
p3167
tp3168
a(S'kohl'
p3169
tp3170
a(S'eve'
p3171
tp3172
a(S'fearing'
p3173
tp3174
a(S'architectural'
p3175
tp3176
a(S'minister'
p3177
tp3178
a(S'federal'
p3179
tp3180
a(S'rhetoric'
p3181
tp3182
a(S'strict'
p3183
tp3184
a(S'chairs'
p3185
tp3186
a(S'84'
p3187
tp3188
a(S'1.5'
p3189
tp3190
a(S'poji\xc5\xa1\xc5\xa5ovna'
p3191
tp3192
a(S'\xd0\xbc\xd1\x8f\xd1\x81\xd0\xbe\xd1\x80\xd0\xb5\xd0\xb7\xd0\xbe\xd0\xba'
p3193
tp3194
a(S'symmetric'
p3195
tp3196
a(S'\xd0\xb3\xd0\xb0\xd0\xbc\xd0\xbf\xd0\xbb\xd0\xb0'
p3197
tp3198
a(S'destruction'
p3199
tp3200
a(S'responsibility'
p3201
tp3202
a(S'hedge'
p3203
tp3204
a(S'\xd1\x80\xd0\xb0\xd1\x81\xd1\x81\xd1\x82\xd0\xb0\xd0\xbd\xd1\x83\xd1\x82\xd1\x81\xd1\x8f'
p3205
tp3206
a(S'\xd0\xbf\xd0\xb5\xd0\xbb\xd1\x8c\xd1\x82\xd1\x8b'
p3207
tp3208
a(S'sub'
p3209
tp3210
a(S'israeli'
p3211
tp3212
a(S'space'
p3213
tp3214
a(S'trustees'
p3215
tp3216
a(S'speculate'
p3217
tp3218
a(S'19'
p3219
tp3220
a(S'signs'
p3221
tp3222
a(S'autumn'
p3223
tp3224
a(S'praising'
p3225
tp3226
a(S'chances'
p3227
tp3228
a(S'\xd1\x80\xd0\xb6\xd0\xb8\xd1\x87\xd0\xb0\xd0\xbd'
p3229
tp3230
a(S'\xd1\x80\xd0\xb0\xd0\xb7\xd0\xb1\xd0\xb8\xd0\xb2\xd0\xb0\xd0\xb5\xd1\x82\xd0\xb5\xd1\x81\xd1\x8c'
p3231
tp3232
a(S'philadelphia'
p3233
tp3234
a(S'criminal'
p3235
tp3236
a(S'blame'
p3237
tp3238
a(S'suspected'
p3239
tp3240
a(S'tech'
p3241
tp3242
a(S'habsburg'
p3243
tp3244
a(S'\xd1\x85\xd0\xbe\xd0\xbb\xd0\xbb\xd0\xb0\xd0\xbc\xd0\xb8'
p3245
tp3246
a(S'natanz'
p3247
tp3248
a(S'\xd0\xbb\xd1\x83\xd1\x81\xd0\xba\xd0\xb8\xd0\xbd\xd0\xb8'
p3249
tp3250
a(S'introductory'
p3251
tp3252
a(S'responsible'
p3253
tp3254
a(S'\xd0\xbe\xd0\xb1\xd0\xbb\xd0\xb0\xd0\xb4\xd0\xb0\xd1\x82\xd0\xb5\xd0\xbb\xd1\x8c\xd0\xbd\xd0\xb8\xd1\x86\xd1\x8b'
p3255
tp3256
a(S'slogan'
p3257
tp3258
a(S'presidents'
p3259
tp3260
a(S'respect'
p3261
tp3262
a(S'toxic'
p3263
tp3264
a(S'collateral'
p3265
tp3266
a(S'1.6'
p3267
tp3268
a(S'corrosion'
p3269
tp3270
a(S'suisse'
p3271
tp3272
a(S'\xd1\x80\xd0\xb0\xd0\xb9\xd1\x85\xd0\xbb\xd0\xb0'
p3273
tp3274
a(S'articles'
p3275
tp3276
a(S'provocatively'
p3277
tp3278
a(S'investigate'
p3279
tp3280
a(S'forest'
p3281
tp3282
a(S'plus'
p3283
tp3284
a(S'\xd0\xb2\xd0\xb8\xd0\xbb\xd1\x8c\xd0\xb4\xd0\xb1\xd0\xb0\xd0\xb4\xd0\xb5'
p3285
tp3286
a(S'victoria'
p3287
tp3288
a(S'blocked'
p3289
tp3290
a(S'broke'
p3291
tp3292
a(S'\xd1\x81\xd0\xb5\xd0\xba\xd1\x83\xd0\xbd\xd0\xb4\xd0\xbe\xd0\xbc\xd0\xb5\xd1\x80\xd0\xbe\xd0\xbc'
p3293
tp3294
a(S'weeks'
p3295
tp3296
a(S'frenchman'
p3297
tp3298
a(S'\xd0\xb3\xd1\x80\xd1\x83\xd0\xb1\xd0\xb5'
p3299
tp3300
a(S'steel'
p3301
tp3302
a(S'haber'
p3303
tp3304
a(S'nasa'
p3305
tp3306
a(S'43'
p3307
tp3308
a(S'omaha'
p3309
tp3310
a(S'symbol'
p3311
tp3312
a(S'belvedere'
p3313
tp3314
a(S'social'
p3315
tp3316
a(S'saxon'
p3317
tp3318
a(S'stamp'
p3319
tp3320
a(S'moss'
p3321
tp3322
a(S'graduate'
p3323
tp3324
a(S'paper'
p3325
tp3326
a(S'leather'
p3327
tp3328
a(S'survivors'
p3329
tp3330
a(S'authorities'
p3331
tp3332
a(S'returns'
p3333
tp3334
a(S'coachman'
p3335
tp3336
a(S'brothers'
p3337
tp3338
a(S'\xd0\xbc\xd0\xb0\xd1\x82\xd1\x86'
p3339
tp3340
a(S'goods'
p3341
tp3342
a(S'gas'
p3343
tp3344
a(S'jennifer'
p3345
tp3346
a(S'closest'
p3347
tp3348
a(S'\xd1\x87\xd0\xb5\xd1\x82\xd1\x8b\xd1\x80\xd0\xb5\xd1\x85\xd1\x86\xd0\xb8\xd0\xbb\xd0\xb8\xd0\xbd\xd0\xb4\xd1\x80\xd0\xbe\xd0\xb2\xd0\xbe\xd0\xb9'
p3349
tp3350
a(S'prayers'
p3351
tp3352
a(S'2013'
p3353
tp3354
a(S'mongomery'
p3355
tp3356
a(S'economy'
p3357
tp3358
a(S'month'
p3359
tp3360
a(S'weighs'
p3361
tp3362
a(S'spatial'
p3363
tp3364
a(S'list'
p3365
tp3366
a(S'\xd1\x84\xd0\xbb\xd0\xb0\xd0\xb9\xd0\xb5\xd1\x80\xd1\x81'
p3367
tp3368
a(S'30,000'
p3369
tp3370
a(S'goldman'
p3371
tp3372
a(S'academia'
p3373
tp3374
a(S'add'
p3375
tp3376
a(S'lottery'
p3377
tp3378
a(S'\xd0\xbc\xd0\xb5\xd1\x87\xd1\x82\xd0\xb0\xd1\x82\xd0\xb5\xd0\xbb\xd0\xb5\xd0\xbc'
p3379
tp3380
a(S'gambling'
p3381
tp3382
a(S'0.6'
p3383
tp3384
a(S'listen'
p3385
tp3386
a(S'foundations'
p3387
tp3388
a(S'1993'
p3389
tp3390
a(S'\xd1\x86\xd0\xb5\xd0\xbd\xd1\x82\xd1\x80\xd0\xbe\xd0\xb2\xd0\xbe\xd0\xb3\xd0\xbe'
p3391
tp3392
a(S'\xd1\x81\xd0\xbe\xd1\x80\xd0\xbe\xd0\xba\xd0\xb0\xd1\x88\xd0\xb5\xd1\x81\xd1\x82\xd0\xb8\xd0\xbb\xd0\xb5\xd1\x82\xd0\xbd\xd0\xb8\xd0\xb9'
p3393
tp3394
a(S'virginia'
p3395
tp3396
a(S'\xd1\x81\xd0\xb5\xd0\xbb\xd0\xb5\xd0\xbd\xd1\x83'
p3397
tp3398
a(S'july'
p3399
tp3400
a(S'selen'
p3401
tp3402
a(S'ivan'
p3403
tp3404
a(S'\xd1\x8f\xd0\xb1\xd0\xbb\xd0\xbe\xd0\xbd\xd0\xb5\xd1\x86\xd0\xb5\xd0\xbc'
p3405
tp3406
a(S'conference'
p3407
tp3408
a(S'ups'
p3409
tp3410
a(S'situations'
p3411
tp3412
a(S'son'
p3413
tp3414
a(S'circumstances'
p3415
tp3416
a(S'economist'
p3417
tp3418
a(S'\xd0\xb7\xd0\xb0\xd0\xbd\xd0\xb8\xd0\xbc\xd0\xb0\xd1\x82\xd0\xb5\xd0\xbb\xd1\x8c\xd0\xbd\xd0\xb0'
p3419
tp3420
a(S'asbestos'
p3421
tp3422
a(S's&p'
p3423
tp3424
a(S'cnbc'
p3425
tp3426
a(S'mayor'
p3427
tp3428
a(S'die'
p3429
tp3430
a(S'forsa'
p3431
tp3432
a(S'malfunctions'
p3433
tp3434
a(S'geiger'
p3435
tp3436
a(S'definitions'
p3437
tp3438
a(S'voyage'
p3439
tp3440
a(S'\xd0\xb0\xd0\xb3\xd0\xb8\xd0\xbb\xd0\xb5\xd1\x80\xd1\x83'
p3441
tp3442
a(S'\xd0\xb8\xd0\xb2\xd0\xb5\xd1\x82\xd1\x8b'
p3443
tp3444
a(S'enthusiasm'
p3445
tp3446
a(S'croatia'
p3447
tp3448
a(S'soles'
p3449
tp3450
a(S'depression'
p3451
tp3452
a(S'julius'
p3453
tp3454
a(S'\xd1\x81\xd1\x8e\xd0\xb8\xd1\x81\xd1\x81'
p3455
tp3456
a(S'janney'
p3457
tp3458
a(S'jazz'
p3459
tp3460
a(S'\xd0\xb4\xd0\xb5\xd0\xbb\xd0\xb0\xd0\xbd\xd0\xb8\xd0\xb8'
p3461
tp3462
a(S'\xd0\xb4\xd0\xbe\xd0\xbf\xd0\xbe\xd0\xbb\xd0\xbd\xd0\xb8\xd1\x82\xd1\x8c\xd1\x81\xd1\x8f'
p3463
tp3464
a(S'academica'
p3465
tp3466
a(S'\xd0\xbf\xd1\x80\xd0\xb5\xd0\xb4\xd0\xbf\xd0\xbe\xd0\xbb\xd0\xbe\xd0\xb6\xd0\xb8\xd1\x82\xd0\xb5\xd0\xbb\xd1\x8c\xd0\xbd\xd0\xbe\xd0\xbc\xd1\x83'
p3467
tp3468
a(S'53'
p3469
tp3470
a(S'\xd0\xbf\xd1\x80\xd0\xbe\xd0\xb2\xd0\xb0\xd0\xbb\xd0\xb5\xd0\xbd\xd0\xbd\xd1\x8b\xd1\x85'
p3471
tp3472
a(S'bodyguard'
p3473
tp3474
a(S'\xd1\x85\xd1\x83\xd1\x81\xd1\x81\xd0\xbb\xd1\x8f\xd0\xb9\xd0\xbd'
p3475
tp3476
a(S'oldest'
p3477
tp3478
a(S'eurozone'
p3479
tp3480
a(S'saturday'
p3481
tp3482
a(S'mac'
p3483
tp3484
a(S'\xd0\xbf\xd1\x8f\xd1\x82\xd0\xb8\xd0\xbc\xd0\xb0\xd1\x82\xd1\x87\xd0\xb5\xd0\xb2\xd1\x83\xd1\x8e'
p3485
tp3486
a(S'1992'
p3487
tp3488
a(S'boyish'
p3489
tp3490
a(S'isfahan'
p3491
tp3492
a(S'km'
p3493
tp3494
a(S'russia'
p3495
tp3496
a(S'sectors'
p3497
tp3498
a(S'lehman'
p3499
tp3500
a(S'1960s'
p3501
tp3502
a(S'slap'
p3503
tp3504
a(S'204'
p3505
tp3506
a(S'uranium'
p3507
tp3508
a(S'\xd1\x80\xd0\xbe\xd0\xbc\xd0\xb5\xd1\x82\xd1\x82\xd0\xb8'
p3509
tp3510
a(S'skeptics'
p3511
tp3512
a(S'\xd0\xbc\xd0\xbe\xd1\x80\xd0\xb0\xd0\xb2\xd1\x81\xd0\xba\xd1\x83\xd1\x8e'
p3513
tp3514
a(S'anton'
p3515
tp3516
a(S'statement'
p3517
tp3518
a(S'christina'
p3519
tp3520
a(S'\xd0\xbe\xd0\xb1\xd0\xbb\xd0\xb0\xd0\xb4\xd0\xb0\xd1\x82\xd0\xb5\xd0\xbb\xd1\x8c\xd0\xbd\xd0\xb8\xd1\x86'
p3521
tp3522
a(S'23'
p3523
tp3524
a(S'hans'
p3525
tp3526
a(S'10.7'
p3527
tp3528
a(S'\xd0\xb7\xd0\xb0\xd1\x81\xd0\xbd\xd0\xb5\xd0\xb6\xd0\xb5\xd0\xbd\xd0\xbd\xd1\x8b\xd0\xb9'
p3529
tp3530
a(S'fingerprints'
p3531
tp3532
a(S'gold'
p3533
tp3534
a(S'corporate'
p3535
tp3536
a(S'season'
p3537
tp3538
a(S'room'
p3539
tp3540
a(S'tenth'
p3541
tp3542
a(S'red'
p3543
tp3544
a(S'scandal'
p3545
tp3546
a(S'disputed'
p3547
tp3548
a(S'review'
p3549
tp3550
a(S'cases'
p3551
tp3552
a(S'stabilized'
p3553
tp3554
a(S'interesting'
p3555
tp3556
a(S'direct'
p3557
tp3558
a(S'users'
p3559
tp3560
a(S'\xd0\xbe\xd0\xbf\xd0\xbe\xd0\xb7\xd0\xb4\xd0\xb0\xd0\xbd\xd0\xb8\xd0\xb9'
p3561
tp3562
a(S'emotionally'
p3563
tp3564
a(S'representative'
p3565
tp3566
a(S'betrayed'
p3567
tp3568
a(S'terrorist'
p3569
tp3570
a(S'reminded'
p3571
tp3572
a(S'emancipation'
p3573
tp3574
a(S'sink'
p3575
tp3576
a(S'impossible'
p3577
tp3578
a(S'5.5'
p3579
tp3580
a(S'earned'
p3581
tp3582
a(S'hopes'
p3583
tp3584
a(S'exact'
p3585
tp3586
a(S'goals'
p3587
tp3588
a(S'luxurious'
p3589
tp3590
a(S'personal'
p3591
tp3592
a(S'30'
p3593
tp3594
a(S'difference'
p3595
tp3596
a(S'illusion'
p3597
tp3598
a(S'platform'
p3599
tp3600
a(S'portfolio'
p3601
tp3602
a(S'hellhole'
p3603
tp3604
a(S'hobby'
p3605
tp3606
a(S'jargon'
p3607
tp3608
a(S'analysis'
p3609
tp3610
a(S'regularly'
p3611
tp3612
a(S'alternative'
p3613
tp3614
a(S'ladies'
p3615
tp3616
a(S'property'
p3617
tp3618
a(S'swimsuit'
p3619
tp3620
a(S'false'
p3621
tp3622
a(S'actively'
p3623
tp3624
a(S'18'
p3625
tp3626
a(S'shift'
p3627
tp3628
a(S'enduring'
p3629
tp3630
a(S'era'
p3631
tp3632
a(S'teammates'
p3633
tp3634
a(S'effective'
p3635
tp3636
a(S'injuries'
p3637
tp3638
a(S'entertaining'
p3639
tp3640
a(S'sachs'
p3641
tp3642
a(S'knowing'
p3643
tp3644
a(S'closer'
p3645
tp3646
a(S'emblem'
p3647
tp3648
a(S'achieved'
p3649
tp3650
a(S'seminar'
p3651
tp3652
a(S'woke'
p3653
tp3654
a(S'dynamic'
p3655
tp3656
a(S'announce'
p3657
tp3658
a(S'revenues'
p3659
tp3660
a(S'surface'
p3661
tp3662
a(S'closely'
p3663
tp3664
a(S'warned'
p3665
tp3666
a(S'criticize'
p3667
tp3668
a(S'servers'
p3669
tp3670
a(S'manage'
p3671
tp3672
a(S'multispeed'
p3673
tp3674
a(S'accelerated'
p3675
tp3676
a(S'pointed'
p3677
tp3678
a(S'rock'
p3679
tp3680
a(S'write'
p3681
tp3682
a(S'bmw'
p3683
tp3684
a(S'defenders'
p3685
tp3686
a(S'threaten'
p3687
tp3688
a(S'fall'
p3689
tp3690
a(S'types'
p3691
tp3692
a(S'distract'
p3693
tp3694
a(S'dream'
p3695
tp3696
a(S'22'
p3697
tp3698
a(S'approximately'
p3699
tp3700
a(S'saxons'
p3701
tp3702
a(S'introduction'
p3703
tp3704
a(S'migrants'
p3705
tp3706
a(S'dare'
p3707
tp3708
a(S'explained'
p3709
tp3710
a(S'shoes'
p3711
tp3712
a(S'exam'
p3713
tp3714
a(S'industrial'
p3715
tp3716
a(S'developed'
p3717
tp3718
a(S'agricultural'
p3719
tp3720
a(S'prepare'
p3721
tp3722
a(S'rivals'
p3723
tp3724
a(S'forums'
p3725
tp3726
a(S'weigh'
p3727
tp3728
a(S'distribute'
p3729
tp3730
a(S'happened'
p3731
tp3732
a(S'fundamental'
p3733
tp3734
a(S'\xd0\xbd\xd0\xb0\xd0\xbd\xd0\xb5\xd1\x81\xd1\x88\xd0\xb8\xd0\xbc'
p3735
tp3736
a(S'flint'
p3737
tp3738
a(S'informer'
p3739
tp3740
a(S'conclusions'
p3741
tp3742
a(S'nhl'
p3743
tp3744
a(S'commodity'
p3745
tp3746
a(S'seasonal'
p3747
tp3748
a(S'extent'
p3749
tp3750
a(S'surrendered'
p3751
tp3752
a(S'milena'
p3753
tp3754
a(S'instructions'
p3755
tp3756
a(S'afghanistan'
p3757
tp3758
a(S'faithful'
p3759
tp3760
a(S'historically'
p3761
tp3762
a(S'dear'
p3763
tp3764
a(S'reflects'
p3765
tp3766
a(S'unlike'
p3767
tp3768
a(S'requires'
p3769
tp3770
a(S'decades'
p3771
tp3772
a(S'installation'
p3773
tp3774
a(S'decides'
p3775
tp3776
a(S'fit'
p3777
tp3778
a(S'focuses'
p3779
tp3780
a(S'hunger'
p3781
tp3782
a(S'revenge'
p3783
tp3784
a(S'punish'
p3785
tp3786
a(S'replacement'
p3787
tp3788
a(S'slovak'
p3789
tp3790
a(S'educational'
p3791
tp3792
a(S'graphic'
p3793
tp3794
a(S'nobody'
p3795
tp3796
a(S'effect'
p3797
tp3798
a(S'tougher'
p3799
tp3800
a(S'audience'
p3801
tp3802
a(S'welcomed'
p3803
tp3804
a(S'strong'
p3805
tp3806
a(S'offered'
p3807
tp3808
a(S'defeats'
p3809
tp3810
a(S'attracted'
p3811
tp3812
a(S'leading'
p3813
tp3814
a(S'reportedly'
p3815
tp3816
a(S'1930'
p3817
tp3818
a(S'predicted'
p3819
tp3820
a(S'flexible'
p3821
tp3822
a(S'awareness'
p3823
tp3824
a(S'rule'
p3825
tp3826
a(S'outset'
p3827
tp3828
a(S'pays'
p3829
tp3830
a(S'journey'
p3831
tp3832
a(S'curators'
p3833
tp3834
a(S'1880'
p3835
tp3836
a(S'wheel'
p3837
tp3838
a(S'pat'
p3839
tp3840
a(S'affect'
p3841
tp3842
a(S'disputes'
p3843
tp3844
a(S'floppy'
p3845
tp3846
a(S'center'
p3847
tp3848
a(S'illegal'
p3849
tp3850
a(S'intentions'
p3851
tp3852
a(S'seems'
p3853
tp3854
a(S'bloc'
p3855
tp3856
a(S'halted'
p3857
tp3858
a(S'11'
p3859
tp3860
a(S'gymnastics'
p3861
tp3862
a(S'ambitions'
p3863
tp3864
a(S'memory'
p3865
tp3866
a(S'training'
p3867
tp3868
a(S'successfully'
p3869
tp3870
a(S'break'
p3871
tp3872
a(S'amendments'
p3873
tp3874
a(S'ate'
p3875
tp3876
a(S'guests'
p3877
tp3878
a(S'unacceptable'
p3879
tp3880
a(S'arguments'
p3881
tp3882
a(S'unilever'
p3883
tp3884
a(S'complex'
p3885
tp3886
a(S'16,000'
p3887
tp3888
a(S'dirty'
p3889
tp3890
a(S'duchy'
p3891
tp3892
a(S'ways'
p3893
tp3894
a(S'airport'
p3895
tp3896
a(S'flour'
p3897
tp3898
a(S'top'
p3899
tp3900
a(S'trust'
p3901
tp3902
a(S'ceausescus'
p3903
tp3904
a(S'hope'
p3905
tp3906
a(S'flew'
p3907
tp3908
a(S'themselves'
p3909
tp3910
a(S'risky'
p3911
tp3912
a(S'ruins'
p3913
tp3914
a(S'magnificent'
p3915
tp3916
a(S'noon'
p3917
tp3918
a(S'&'
p3919
tp3920
a(S'thilo'
p3921
tp3922
a(S'document'
p3923
tp3924
a(S'c.'
p3925
tp3926
a(S'menu'
p3927
tp3928
a(S'choir'
p3929
tp3930
a(S'doors'
p3931
tp3932
a(S'contradicts'
p3933
tp3934
a(S'existing'
p3935
tp3936
a(S'singer'
p3937
tp3938
a(S'allegations'
p3939
tp3940
a(S'size'
p3941
tp3942
a(S'interaction'
p3943
tp3944
a(S'taste'
p3945
tp3946
a(S'transitional'
p3947
tp3948
a(S'shield'
p3949
tp3950
a(S'scale'
p3951
tp3952
a(S'got'
p3953
tp3954
a(S'schoolchildren'
p3955
tp3956
a(S'fine'
p3957
tp3958
a(S'towels'
p3959
tp3960
a(S'fifth'
p3961
tp3962
a(S'french'
p3963
tp3964
a(S'discovery'
p3965
tp3966
a(S'lines'
p3967
tp3968
a(S'dirt'
p3969
tp3970
a(S'complications'
p3971
tp3972
a(S'purchase'
p3973
tp3974
a(S'technological'
p3975
tp3976
a(S'color'
p3977
tp3978
a(S'profile'
p3979
tp3980
a(S'modesty'
p3981
tp3982
a(S'citing'
p3983
tp3984
a(S'coach'
p3985
tp3986
a(S'condemned'
p3987
tp3988
a(S'innovation'
p3989
tp3990
a(S'efforts'
p3991
tp3992
a(S'picture'
p3993
tp3994
a(S'energy'
p3995
tp3996
a(S'considerable'
p3997
tp3998
a(S"apostates'61"
p3999
tp4000
a.